	.text
	.file	"hisi_mmc_bkops.c"
	.file	1 "/mnt/disk/jenkins/ci/workspace/chipset_pipeline_release/opensource/component_code/vendor/huawei/extra/build/build_script/kirin_kernel_release/kernel/include/linux/mas_bkops_core.h"
	.file	2 "/mnt/disk/jenkins/ci/workspace/chipset_pipeline_release/opensource/component_code/vendor/huawei/extra/build/build_script/kirin_kernel_release/kernel/include/asm-generic/int-ll64.h"
	.file	3 "/mnt/disk/jenkins/ci/workspace/chipset_pipeline_release/opensource/component_code/vendor/huawei/extra/build/build_script/kirin_kernel_release/kernel/drivers/mmc/core/hisi_mmc_bkops.c"
	.file	4 "/mnt/disk/jenkins/ci/workspace/chipset_pipeline_release/opensource/component_code/vendor/huawei/extra/build/build_script/kirin_kernel_release/kernel/include/linux/kobject_ns.h"
	.file	5 "/mnt/disk/jenkins/ci/workspace/chipset_pipeline_release/opensource/component_code/vendor/huawei/extra/build/build_script/kirin_kernel_release/kernel/include/linux/hrtimer.h"
	.file	6 "/mnt/disk/jenkins/ci/workspace/chipset_pipeline_release/opensource/component_code/vendor/huawei/extra/build/build_script/kirin_kernel_release/kernel/include/linux/module.h"
	.file	7 "/mnt/disk/jenkins/ci/workspace/chipset_pipeline_release/opensource/component_code/vendor/huawei/extra/build/build_script/kirin_kernel_release/kernel/include/linux/quota.h"
	.file	8 "/mnt/disk/jenkins/ci/workspace/chipset_pipeline_release/opensource/component_code/vendor/huawei/extra/build/build_script/kirin_kernel_release/kernel/include/linux/blkdev.h"
	.file	9 "/mnt/disk/jenkins/ci/workspace/chipset_pipeline_release/opensource/component_code/vendor/huawei/extra/build/build_script/kirin_kernel_release/kernel/include/linux/elevator.h"
	.file	10 "/mnt/disk/jenkins/ci/workspace/chipset_pipeline_release/opensource/component_code/vendor/huawei/extra/build/build_script/kirin_kernel_release/kernel/include/linux/rcu_sync.h"
	.file	11 "/mnt/disk/jenkins/ci/workspace/chipset_pipeline_release/opensource/component_code/vendor/huawei/extra/build/build_script/kirin_kernel_release/kernel/include/linux/fs.h"
	.file	12 "/mnt/disk/jenkins/ci/workspace/chipset_pipeline_release/opensource/component_code/vendor/huawei/extra/build/build_script/kirin_kernel_release/kernel/include/linux/pid.h"
	.file	13 "/mnt/disk/jenkins/ci/workspace/chipset_pipeline_release/opensource/component_code/vendor/huawei/extra/build/build_script/kirin_kernel_release/kernel/include/linux/migrate_mode.h"
	.file	14 "/mnt/disk/jenkins/ci/workspace/chipset_pipeline_release/opensource/component_code/vendor/huawei/extra/build/build_script/kirin_kernel_release/kernel/include/linux/memremap.h"
	.file	15 "/mnt/disk/jenkins/ci/workspace/chipset_pipeline_release/opensource/component_code/vendor/huawei/extra/build/build_script/kirin_kernel_release/kernel/include/linux/mm.h"
	.file	16 "/mnt/disk/jenkins/ci/workspace/chipset_pipeline_release/opensource/component_code/vendor/huawei/extra/build/build_script/kirin_kernel_release/kernel/include/linux/restart_block.h"
	.file	17 "/mnt/disk/jenkins/ci/workspace/chipset_pipeline_release/opensource/component_code/vendor/huawei/extra/build/build_script/kirin_kernel_release/kernel/include/linux/device.h"
	.file	18 "/mnt/disk/jenkins/ci/workspace/chipset_pipeline_release/opensource/component_code/vendor/huawei/extra/build/build_script/kirin_kernel_release/kernel/include/linux/pm.h"
	.file	19 "/mnt/disk/jenkins/ci/workspace/chipset_pipeline_release/opensource/component_code/vendor/huawei/extra/build/build_script/kirin_kernel_release/kernel/include/linux/mmc/core.h"
	.file	20 "/mnt/disk/jenkins/ci/workspace/chipset_pipeline_release/opensource/component_code/vendor/huawei/extra/build/build_script/kirin_kernel_release/kernel/include/linux/stddef.h"
	.file	21 "/mnt/disk/jenkins/ci/workspace/chipset_pipeline_release/opensource/component_code/vendor/huawei/extra/build/build_script/kirin_kernel_release/kernel/drivers/mmc/core/queue.h"
	.file	22 "/mnt/disk/jenkins/ci/workspace/chipset_pipeline_release/opensource/component_code/vendor/huawei/extra/build/build_script/kirin_kernel_release/kernel/include/linux/hisi/rdr_hisi_platform.h"
	.file	23 "/mnt/disk/jenkins/ci/workspace/chipset_pipeline_release/opensource/component_code/vendor/huawei/extra/build/build_script/kirin_kernel_release/kernel/include/uapi/asm-generic/int-ll64.h"
	.file	24 "/mnt/disk/jenkins/ci/workspace/chipset_pipeline_release/opensource/component_code/vendor/huawei/extra/build/build_script/kirin_kernel_release/kernel/include/uapi/linux/types.h"
	.file	25 "/mnt/disk/jenkins/ci/workspace/chipset_pipeline_release/opensource/component_code/vendor/huawei/extra/build/build_script/kirin_kernel_release/kernel/include/linux/kobject.h"
	.file	26 "/mnt/disk/jenkins/ci/workspace/chipset_pipeline_release/opensource/component_code/vendor/huawei/extra/build/build_script/kirin_kernel_release/kernel/include/linux/types.h"
	.file	27 "/mnt/disk/jenkins/ci/workspace/chipset_pipeline_release/opensource/component_code/vendor/huawei/extra/build/build_script/kirin_kernel_release/kernel/arch/arm64/include/asm/spinlock_types.h"
	.file	28 "/mnt/disk/jenkins/ci/workspace/chipset_pipeline_release/opensource/component_code/vendor/huawei/extra/build/build_script/kirin_kernel_release/kernel/include/linux/spinlock_types.h"
	.file	29 "/mnt/disk/jenkins/ci/workspace/chipset_pipeline_release/opensource/component_code/vendor/huawei/extra/build/build_script/kirin_kernel_release/kernel/include/uapi/asm-generic/posix_types.h"
	.file	30 "/mnt/disk/jenkins/ci/workspace/chipset_pipeline_release/opensource/component_code/vendor/huawei/extra/build/build_script/kirin_kernel_release/kernel/include/linux/sysfs.h"
	.file	31 "/mnt/disk/jenkins/ci/workspace/chipset_pipeline_release/opensource/component_code/vendor/huawei/extra/build/build_script/kirin_kernel_release/kernel/include/linux/kernfs.h"
	.file	32 "/mnt/disk/jenkins/ci/workspace/chipset_pipeline_release/opensource/component_code/vendor/huawei/extra/build/build_script/kirin_kernel_release/kernel/include/linux/rbtree.h"
	.file	33 "/mnt/disk/jenkins/ci/workspace/chipset_pipeline_release/opensource/component_code/vendor/huawei/extra/build/build_script/kirin_kernel_release/kernel/include/linux/radix-tree.h"
	.file	34 "/mnt/disk/jenkins/ci/workspace/chipset_pipeline_release/opensource/component_code/vendor/huawei/extra/build/build_script/kirin_kernel_release/kernel/include/linux/idr.h"
	.file	35 "/mnt/disk/jenkins/ci/workspace/chipset_pipeline_release/opensource/component_code/vendor/huawei/extra/build/build_script/kirin_kernel_release/kernel/include/linux/seq_file.h"
	.file	36 "/mnt/disk/jenkins/ci/workspace/chipset_pipeline_release/opensource/component_code/vendor/huawei/extra/build/build_script/kirin_kernel_release/kernel/include/asm-generic/atomic-long.h"
	.file	37 "/mnt/disk/jenkins/ci/workspace/chipset_pipeline_release/opensource/component_code/vendor/huawei/extra/build/build_script/kirin_kernel_release/kernel/include/linux/mutex.h"
	.file	38 "/mnt/disk/jenkins/ci/workspace/chipset_pipeline_release/opensource/component_code/vendor/huawei/extra/build/build_script/kirin_kernel_release/kernel/include/linux/osq_lock.h"
	.file	39 "/mnt/disk/jenkins/ci/workspace/chipset_pipeline_release/opensource/component_code/vendor/huawei/extra/build/build_script/kirin_kernel_release/kernel/arch/arm64/include/asm/thread_info.h"
	.file	40 "/mnt/disk/jenkins/ci/workspace/chipset_pipeline_release/opensource/component_code/vendor/huawei/extra/build/build_script/kirin_kernel_release/kernel/include/linux/sched.h"
	.file	41 "/mnt/disk/jenkins/ci/workspace/chipset_pipeline_release/opensource/component_code/vendor/huawei/extra/build/build_script/kirin_kernel_release/kernel/include/linux/llist.h"
	.file	42 "/mnt/disk/jenkins/ci/workspace/chipset_pipeline_release/opensource/component_code/vendor/huawei/extra/build/build_script/kirin_kernel_release/kernel/include/linux/cpumask.h"
	.file	43 "/mnt/disk/jenkins/ci/workspace/chipset_pipeline_release/opensource/component_code/vendor/huawei/extra/build/build_script/kirin_kernel_release/kernel/include/linux/timerqueue.h"
	.file	44 "/mnt/disk/jenkins/ci/workspace/chipset_pipeline_release/opensource/component_code/vendor/huawei/extra/build/build_script/kirin_kernel_release/kernel/include/linux/ktime.h"
	.file	45 "/mnt/disk/jenkins/ci/workspace/chipset_pipeline_release/opensource/component_code/vendor/huawei/extra/build/build_script/kirin_kernel_release/kernel/include/linux/seqlock.h"
	.file	46 "/mnt/disk/jenkins/ci/workspace/chipset_pipeline_release/opensource/component_code/vendor/huawei/extra/build/build_script/kirin_kernel_release/kernel/include/linux/plist.h"
	.file	47 "/mnt/disk/jenkins/ci/workspace/chipset_pipeline_release/opensource/component_code/vendor/huawei/extra/build/build_script/kirin_kernel_release/kernel/include/linux/mm_types.h"
	.file	48 "/mnt/disk/jenkins/ci/workspace/chipset_pipeline_release/opensource/component_code/vendor/huawei/extra/build/build_script/kirin_kernel_release/kernel/arch/arm64/include/asm/pgtable-types.h"
	.file	49 "/mnt/disk/jenkins/ci/workspace/chipset_pipeline_release/opensource/component_code/vendor/huawei/extra/build/build_script/kirin_kernel_release/kernel/include/asm-generic/pgtable-nop4d-hack.h"
	.file	50 "/mnt/disk/jenkins/ci/workspace/chipset_pipeline_release/opensource/component_code/vendor/huawei/extra/build/build_script/kirin_kernel_release/kernel/include/linux/uidgid.h"
	.file	51 "/mnt/disk/jenkins/ci/workspace/chipset_pipeline_release/opensource/component_code/vendor/huawei/extra/build/build_script/kirin_kernel_release/kernel/include/linux/dcache.h"
	.file	52 "/mnt/disk/jenkins/ci/workspace/chipset_pipeline_release/opensource/component_code/vendor/huawei/extra/build/build_script/kirin_kernel_release/kernel/include/linux/list_bl.h"
	.file	53 "/mnt/disk/jenkins/ci/workspace/chipset_pipeline_release/opensource/component_code/vendor/huawei/extra/build/build_script/kirin_kernel_release/kernel/include/linux/lockref.h"
	.file	54 "/mnt/disk/jenkins/ci/workspace/chipset_pipeline_release/opensource/component_code/vendor/huawei/extra/build/build_script/kirin_kernel_release/kernel/include/linux/path.h"
	.file	55 "/mnt/disk/jenkins/ci/workspace/chipset_pipeline_release/opensource/component_code/vendor/huawei/extra/build/build_script/kirin_kernel_release/kernel/include/linux/completion.h"
	.file	56 "/mnt/disk/jenkins/ci/workspace/chipset_pipeline_release/opensource/component_code/vendor/huawei/extra/build/build_script/kirin_kernel_release/kernel/include/linux/wait.h"
	.file	57 "/mnt/disk/jenkins/ci/workspace/chipset_pipeline_release/opensource/component_code/vendor/huawei/extra/build/build_script/kirin_kernel_release/kernel/include/linux/export.h"
	.file	58 "/mnt/disk/jenkins/ci/workspace/chipset_pipeline_release/opensource/component_code/vendor/huawei/extra/build/build_script/kirin_kernel_release/kernel/include/linux/cfi.h"
	.file	59 "/mnt/disk/jenkins/ci/workspace/chipset_pipeline_release/opensource/component_code/vendor/huawei/extra/build/build_script/kirin_kernel_release/kernel/include/linux/moduleparam.h"
	.file	60 "/mnt/disk/jenkins/ci/workspace/chipset_pipeline_release/opensource/component_code/vendor/huawei/extra/build/build_script/kirin_kernel_release/kernel/arch/arm64/include/asm/extable.h"
	.file	61 "/mnt/disk/jenkins/ci/workspace/chipset_pipeline_release/opensource/component_code/vendor/huawei/extra/build/build_script/kirin_kernel_release/kernel/include/linux/rbtree_latch.h"
	.file	62 "/mnt/disk/jenkins/ci/workspace/chipset_pipeline_release/opensource/component_code/vendor/huawei/extra/build/build_script/kirin_kernel_release/kernel/include/uapi/linux/elf.h"
	.file	63 "/mnt/disk/jenkins/ci/workspace/chipset_pipeline_release/opensource/component_code/vendor/huawei/extra/build/build_script/kirin_kernel_release/kernel/arch/arm64/include/asm/module.h"
	.file	64 "/mnt/disk/jenkins/ci/workspace/chipset_pipeline_release/opensource/component_code/vendor/huawei/extra/build/build_script/kirin_kernel_release/kernel/include/asm-generic/bug.h"
	.file	65 "/mnt/disk/jenkins/ci/workspace/chipset_pipeline_release/opensource/component_code/vendor/huawei/extra/build/build_script/kirin_kernel_release/kernel/include/linux/tracepoint-defs.h"
	.file	66 "/mnt/disk/jenkins/ci/workspace/chipset_pipeline_release/opensource/component_code/vendor/huawei/extra/build/build_script/kirin_kernel_release/kernel/include/linux/jump_label.h"
	.file	67 "/mnt/disk/jenkins/ci/workspace/chipset_pipeline_release/opensource/component_code/vendor/huawei/extra/build/build_script/kirin_kernel_release/kernel/include/linux/lockdep.h"
	.file	68 "/mnt/disk/jenkins/ci/workspace/chipset_pipeline_release/opensource/component_code/vendor/huawei/extra/build/build_script/kirin_kernel_release/kernel/include/linux/projid.h"
	.file	69 "/mnt/disk/jenkins/ci/workspace/chipset_pipeline_release/opensource/component_code/vendor/huawei/extra/build/build_script/kirin_kernel_release/kernel/include/linux/time64.h"
	.file	70 "/mnt/disk/jenkins/ci/workspace/chipset_pipeline_release/opensource/component_code/vendor/huawei/extra/build/build_script/kirin_kernel_release/kernel/include/linux/shrinker.h"
	.file	71 "/mnt/disk/jenkins/ci/workspace/chipset_pipeline_release/opensource/component_code/vendor/huawei/extra/build/build_script/kirin_kernel_release/kernel/include/linux/rwsem.h"
	.file	72 "/mnt/disk/jenkins/ci/workspace/chipset_pipeline_release/opensource/component_code/vendor/huawei/extra/build/build_script/kirin_kernel_release/kernel/include/linux/genhd.h"
	.file	73 "/mnt/disk/jenkins/ci/workspace/chipset_pipeline_release/opensource/component_code/vendor/huawei/extra/build/build_script/kirin_kernel_release/kernel/include/linux/percpu-refcount.h"
	.file	74 "/mnt/disk/jenkins/ci/workspace/chipset_pipeline_release/opensource/component_code/vendor/huawei/extra/build/build_script/kirin_kernel_release/kernel/include/linux/smp.h"
	.file	75 "/mnt/disk/jenkins/ci/workspace/chipset_pipeline_release/opensource/component_code/vendor/huawei/extra/build/build_script/kirin_kernel_release/kernel/include/linux/blk_types.h"
	.file	76 "/mnt/disk/jenkins/ci/workspace/chipset_pipeline_release/opensource/component_code/vendor/huawei/extra/build/build_script/kirin_kernel_release/kernel/include/linux/bvec.h"
	.file	77 "/mnt/disk/jenkins/ci/workspace/chipset_pipeline_release/opensource/component_code/vendor/huawei/extra/build/build_script/kirin_kernel_release/kernel/include/linux/timer.h"
	.file	78 "/mnt/disk/jenkins/ci/workspace/chipset_pipeline_release/opensource/component_code/vendor/huawei/extra/build/build_script/kirin_kernel_release/kernel/include/uapi/linux/time.h"
	.file	79 "/mnt/disk/jenkins/ci/workspace/chipset_pipeline_release/opensource/component_code/vendor/huawei/extra/build/build_script/kirin_kernel_release/kernel/include/linux/iocontext.h"
	.file	80 "/mnt/disk/jenkins/ci/workspace/chipset_pipeline_release/opensource/component_code/vendor/huawei/extra/build/build_script/kirin_kernel_release/kernel/include/linux/workqueue.h"
	.file	81 "/mnt/disk/jenkins/ci/workspace/chipset_pipeline_release/opensource/component_code/vendor/huawei/extra/build/build_script/kirin_kernel_release/kernel/include/linux/bio.h"
	.file	82 "/mnt/disk/jenkins/ci/workspace/chipset_pipeline_release/opensource/component_code/vendor/huawei/extra/build/build_script/kirin_kernel_release/kernel/include/linux/mempool.h"
	.file	83 "/mnt/disk/jenkins/ci/workspace/chipset_pipeline_release/opensource/component_code/vendor/huawei/extra/build/build_script/kirin_kernel_release/kernel/include/linux/blk-mq.h"
	.file	84 "/mnt/disk/jenkins/ci/workspace/chipset_pipeline_release/opensource/component_code/vendor/huawei/extra/build/build_script/kirin_kernel_release/kernel/include/linux/sbitmap.h"
	.file	85 "/mnt/disk/jenkins/ci/workspace/chipset_pipeline_release/opensource/component_code/vendor/huawei/extra/build/build_script/kirin_kernel_release/kernel/include/linux/srcutree.h"
	.file	86 "/mnt/disk/jenkins/ci/workspace/chipset_pipeline_release/opensource/component_code/vendor/huawei/extra/build/build_script/kirin_kernel_release/kernel/include/linux/rcu_segcblist.h"
	.file	87 "/mnt/disk/jenkins/ci/workspace/chipset_pipeline_release/opensource/component_code/vendor/huawei/extra/build/build_script/kirin_kernel_release/kernel/include/linux/notifier.h"
	.file	88 "/mnt/disk/jenkins/ci/workspace/chipset_pipeline_release/opensource/component_code/vendor/huawei/extra/build/build_script/kirin_kernel_release/kernel/include/linux/backing-dev-defs.h"
	.file	89 "/mnt/disk/jenkins/ci/workspace/chipset_pipeline_release/opensource/component_code/vendor/huawei/extra/build/build_script/kirin_kernel_release/kernel/include/linux/refcount.h"
	.file	90 "/mnt/disk/jenkins/ci/workspace/chipset_pipeline_release/opensource/component_code/vendor/huawei/extra/build/build_script/kirin_kernel_release/kernel/include/linux/kref.h"
	.file	91 "/mnt/disk/jenkins/ci/workspace/chipset_pipeline_release/opensource/component_code/vendor/huawei/extra/build/build_script/kirin_kernel_release/kernel/include/linux/percpu_counter.h"
	.file	92 "/mnt/disk/jenkins/ci/workspace/chipset_pipeline_release/opensource/component_code/vendor/huawei/extra/build/build_script/kirin_kernel_release/kernel/include/linux/flex_proportions.h"
	.file	93 "/mnt/disk/jenkins/ci/workspace/chipset_pipeline_release/opensource/component_code/vendor/huawei/extra/build/build_script/kirin_kernel_release/kernel/include/linux/bsg.h"
	.file	94 "/mnt/disk/jenkins/ci/workspace/chipset_pipeline_release/opensource/component_code/vendor/huawei/extra/build/build_script/kirin_kernel_release/kernel/include/linux/percpu-rwsem.h"
	.file	95 "/mnt/disk/jenkins/ci/workspace/chipset_pipeline_release/opensource/component_code/vendor/huawei/extra/build/build_script/kirin_kernel_release/kernel/include/linux/rcuwait.h"
	.file	96 "/mnt/disk/jenkins/ci/workspace/chipset_pipeline_release/opensource/component_code/vendor/huawei/extra/build/build_script/kirin_kernel_release/kernel/include/linux/uuid.h"
	.file	97 "/mnt/disk/jenkins/ci/workspace/chipset_pipeline_release/opensource/component_code/vendor/huawei/extra/build/build_script/kirin_kernel_release/kernel/include/linux/list_lru.h"
	.file	98 "/mnt/disk/jenkins/ci/workspace/chipset_pipeline_release/opensource/component_code/vendor/huawei/extra/build/build_script/kirin_kernel_release/kernel/include/linux/delayed_call.h"
	.file	99 "/mnt/disk/jenkins/ci/workspace/chipset_pipeline_release/opensource/component_code/vendor/huawei/extra/build/build_script/kirin_kernel_release/kernel/include/linux/nfs_fs_i.h"
	.file	100 "/mnt/disk/jenkins/ci/workspace/chipset_pipeline_release/opensource/component_code/vendor/huawei/extra/build/build_script/kirin_kernel_release/kernel/include/linux/rwlock_types.h"
	.file	101 "/mnt/disk/jenkins/ci/workspace/chipset_pipeline_release/opensource/component_code/vendor/huawei/extra/build/build_script/kirin_kernel_release/kernel/include/linux/cred.h"
	.file	102 "/mnt/disk/jenkins/ci/workspace/chipset_pipeline_release/opensource/component_code/vendor/huawei/extra/build/build_script/kirin_kernel_release/kernel/include/linux/capability.h"
	.file	103 "/mnt/disk/jenkins/ci/workspace/chipset_pipeline_release/opensource/component_code/vendor/huawei/extra/build/build_script/kirin_kernel_release/kernel/include/linux/key.h"
	.file	104 "/mnt/disk/jenkins/ci/workspace/chipset_pipeline_release/opensource/component_code/vendor/huawei/extra/build/build_script/kirin_kernel_release/kernel/include/linux/assoc_array.h"
	.file	105 "/mnt/disk/jenkins/ci/workspace/chipset_pipeline_release/opensource/component_code/vendor/huawei/extra/build/build_script/kirin_kernel_release/kernel/include/linux/sched/user.h"
	.file	106 "/mnt/disk/jenkins/ci/workspace/chipset_pipeline_release/opensource/component_code/vendor/huawei/extra/build/build_script/kirin_kernel_release/kernel/include/linux/errseq.h"
	.file	107 "/mnt/disk/jenkins/ci/workspace/chipset_pipeline_release/opensource/component_code/vendor/huawei/extra/build/build_script/kirin_kernel_release/kernel/include/linux/stat.h"
	.file	108 "/mnt/disk/jenkins/ci/workspace/chipset_pipeline_release/opensource/component_code/vendor/huawei/extra/build/build_script/kirin_kernel_release/kernel/include/uapi/linux/fiemap.h"
	.file	109 "/mnt/disk/jenkins/ci/workspace/chipset_pipeline_release/opensource/component_code/vendor/huawei/extra/build/build_script/kirin_kernel_release/kernel/include/linux/mmzone.h"
	.file	110 "/mnt/disk/jenkins/ci/workspace/chipset_pipeline_release/opensource/component_code/vendor/huawei/extra/build/build_script/kirin_kernel_release/kernel/include/linux/ioport.h"
	.file	111 "/mnt/disk/jenkins/ci/workspace/chipset_pipeline_release/opensource/component_code/vendor/huawei/extra/build/build_script/kirin_kernel_release/kernel/arch/arm64/include/asm/page.h"
	.file	112 "/mnt/disk/jenkins/ci/workspace/chipset_pipeline_release/opensource/component_code/vendor/huawei/extra/build/build_script/kirin_kernel_release/kernel/include/linux/mm_types_task.h"
	.file	113 "/mnt/disk/jenkins/ci/workspace/chipset_pipeline_release/opensource/component_code/vendor/huawei/extra/build/build_script/kirin_kernel_release/kernel/arch/arm64/include/asm/mmu.h"
	.file	114 "/mnt/disk/jenkins/ci/workspace/chipset_pipeline_release/opensource/component_code/vendor/huawei/extra/build/build_script/kirin_kernel_release/kernel/include/linux/uprobes.h"
	.file	115 "/mnt/disk/jenkins/ci/workspace/chipset_pipeline_release/opensource/component_code/vendor/huawei/extra/build/build_script/kirin_kernel_release/kernel/arch/arm64/include/asm/compat.h"
	.file	116 "/mnt/disk/jenkins/ci/workspace/chipset_pipeline_release/opensource/component_code/vendor/huawei/extra/build/build_script/kirin_kernel_release/kernel/include/uapi/asm-generic/signal.h"
	.file	117 "/mnt/disk/jenkins/ci/workspace/chipset_pipeline_release/opensource/component_code/vendor/huawei/extra/build/build_script/kirin_kernel_release/kernel/include/linux/signal_types.h"
	.file	118 "/mnt/disk/jenkins/ci/workspace/chipset_pipeline_release/opensource/component_code/vendor/huawei/extra/build/build_script/kirin_kernel_release/kernel/include/linux/seccomp.h"
	.file	119 "/mnt/disk/jenkins/ci/workspace/chipset_pipeline_release/opensource/component_code/vendor/huawei/extra/build/build_script/kirin_kernel_release/kernel/include/uapi/asm-generic/siginfo.h"
	.file	120 "/mnt/disk/jenkins/ci/workspace/chipset_pipeline_release/opensource/component_code/vendor/huawei/extra/build/build_script/kirin_kernel_release/kernel/include/linux/task_io_accounting.h"
	.file	121 "/mnt/disk/jenkins/ci/workspace/chipset_pipeline_release/opensource/component_code/vendor/huawei/extra/build/build_script/kirin_kernel_release/kernel/include/linux/nodemask.h"
	.file	122 "/mnt/disk/jenkins/ci/workspace/chipset_pipeline_release/opensource/component_code/vendor/huawei/extra/build/build_script/kirin_kernel_release/kernel/arch/arm64/include/asm/processor.h"
	.file	123 "/mnt/disk/jenkins/ci/workspace/chipset_pipeline_release/opensource/component_code/vendor/huawei/extra/build/build_script/kirin_kernel_release/kernel/arch/arm64/include/uapi/asm/ptrace.h"
	.file	124 "/mnt/disk/jenkins/ci/workspace/chipset_pipeline_release/opensource/component_code/vendor/huawei/extra/build/build_script/kirin_kernel_release/kernel/arch/arm64/include/asm/fpsimd.h"
	.file	125 "/mnt/disk/jenkins/ci/workspace/chipset_pipeline_release/opensource/component_code/vendor/huawei/extra/build/build_script/kirin_kernel_release/kernel/include/linux/mod_devicetable.h"
	.file	126 "/mnt/disk/jenkins/ci/workspace/chipset_pipeline_release/opensource/component_code/vendor/huawei/extra/build/build_script/kirin_kernel_release/kernel/include/linux/pm_wakeup.h"
	.file	127 "/mnt/disk/jenkins/ci/workspace/chipset_pipeline_release/opensource/component_code/vendor/huawei/extra/build/build_script/kirin_kernel_release/kernel/include/linux/pinctrl/devinfo.h"
	.file	128 "/mnt/disk/jenkins/ci/workspace/chipset_pipeline_release/opensource/component_code/vendor/huawei/extra/build/build_script/kirin_kernel_release/kernel/arch/arm64/include/asm/device.h"
	.file	129 "/mnt/disk/jenkins/ci/workspace/chipset_pipeline_release/opensource/component_code/vendor/huawei/extra/build/build_script/kirin_kernel_release/kernel/include/linux/klist.h"
	.file	130 "/mnt/disk/jenkins/ci/workspace/chipset_pipeline_release/opensource/component_code/vendor/huawei/extra/build/build_script/kirin_kernel_release/kernel/include/linux/mmc/host.h"
	.file	131 "/mnt/disk/jenkins/ci/workspace/chipset_pipeline_release/opensource/component_code/vendor/huawei/extra/build/build_script/kirin_kernel_release/kernel/include/linux/scatterlist.h"
	.file	132 "/mnt/disk/jenkins/ci/workspace/chipset_pipeline_release/opensource/component_code/vendor/huawei/extra/build/build_script/kirin_kernel_release/kernel/include/linux/mmc/pm.h"
	.file	133 "/mnt/disk/jenkins/ci/workspace/chipset_pipeline_release/opensource/component_code/vendor/huawei/extra/build/build_script/kirin_kernel_release/kernel/drivers/mmc/core/core.h"
	.file	134 "/mnt/disk/jenkins/ci/workspace/chipset_pipeline_release/opensource/component_code/vendor/huawei/extra/build/build_script/kirin_kernel_release/kernel/include/linux/mmc/card.h"
	.section	.text.mmc_start_bkops,"ax",@progbits
	.hidden	mmc_start_bkops         // -- Begin function mmc_start_bkops
	.globl	mmc_start_bkops
	.p2align	2
	.type	mmc_start_bkops,@function
mmc_start_bkops:                        // @mmc_start_bkops
.Lfunc_begin0:
	.loc	3 79 0                  // kernel/drivers/mmc/core/hisi_mmc_bkops.c:79:0
	.cfi_sections .debug_frame
	.cfi_startproc
// %bb.0:
	//DEBUG_VALUE: mmc_start_bkops:card <- $x0
	//DEBUG_VALUE: mmc_start_bkops:from_exception <- undef
	sub	sp, sp, #48             // =48
	stp	x20, x19, [sp, #16]     // 16-byte Folded Spill
	stp	x29, x30, [sp, #32]     // 16-byte Folded Spill
	add	x29, sp, #32            // =32
	.cfi_def_cfa w29, 16
	.cfi_offset w30, -8
	.cfi_offset w29, -16
	.cfi_offset w19, -24
	.cfi_offset w20, -32
.Ltmp0:
	.loc	3 85 21 prologue_end    // kernel/drivers/mmc/core/hisi_mmc_bkops.c:85:21
	ldrb	w8, [x0, #1177]
	.loc	3 85 34 is_stmt 0       // kernel/drivers/mmc/core/hisi_mmc_bkops.c:85:34
	cbz	w8, .LBB0_6
.Ltmp1:
// %bb.1:
	//DEBUG_VALUE: mmc_start_bkops:card <- $x0
	.loc	3 85 6                  // kernel/drivers/mmc/core/hisi_mmc_bkops.c:85:6
	ldrb	w8, [x0, #868]
	mov	x20, x0
.Ltmp2:
	//DEBUG_VALUE: mmc_start_bkops:card <- $x20
	tbnz	w8, #5, .LBB0_6
.Ltmp3:
// %bb.2:
	//DEBUG_VALUE: mmc_start_bkops:card <- $x20
	.loc	3 88 8 is_stmt 1        // kernel/drivers/mmc/core/hisi_mmc_bkops.c:88:8
	orr	w1, wzr, #0x1
	mov	w2, #164
	orr	w3, wzr, #0x1
	orr	w7, wzr, #0x1
	mov	x0, x20
	mov	w4, wzr
	mov	w5, wzr
	mov	w6, wzr
	strb	wzr, [sp]
	bl	__mmc_switch
	mov	w19, w0
.Ltmp4:
	//DEBUG_VALUE: mmc_start_bkops:err <- $w19
	.loc	3 97 6                  // kernel/drivers/mmc/core/hisi_mmc_bkops.c:97:6
	cbz	w0, .LBB0_8
.Ltmp5:
// %bb.3:
	//DEBUG_VALUE: mmc_start_bkops:err <- $w19
	//DEBUG_VALUE: mmc_start_bkops:card <- $x20
	.loc	3 98 3                  // kernel/drivers/mmc/core/hisi_mmc_bkops.c:98:3
	ldr	x8, [x20]
.Ltmp6:
	//DEBUG_VALUE: dev_name:dev <- [DW_OP_plus_uconst 8, DW_OP_stack_value] $x8
	//DEBUG_VALUE: kobject_name:kobj <- [DW_OP_plus_uconst 8, DW_OP_plus_uconst 16, DW_OP_stack_value] $x8
	.loc	17 981 11               // kernel/include/linux/device.h:981:11
	ldr	x1, [x8, #88]
.Ltmp7:
	.loc	17 981 6 is_stmt 0      // kernel/include/linux/device.h:981:6
	cbnz	x1, .LBB0_5
.Ltmp8:
// %bb.4:
	//DEBUG_VALUE: kobject_name:kobj <- [DW_OP_plus_uconst 8, DW_OP_plus_uconst 16, DW_OP_stack_value] $x8
	//DEBUG_VALUE: dev_name:dev <- [DW_OP_plus_uconst 8, DW_OP_stack_value] $x8
	//DEBUG_VALUE: mmc_start_bkops:err <- $w19
	//DEBUG_VALUE: mmc_start_bkops:card <- $x20
	.loc	25 91 15 is_stmt 1      // kernel/include/linux/kobject.h:91:15
	ldr	x1, [x8, #24]
.Ltmp9:
.LBB0_5:
	//DEBUG_VALUE: mmc_start_bkops:err <- $w19
	//DEBUG_VALUE: mmc_start_bkops:card <- $x20
	.loc	3 98 3                  // kernel/drivers/mmc/core/hisi_mmc_bkops.c:98:3
	adrp	x0, .L.str
	add	x0, x0, :lo12:.L.str
	mov	w2, w19
	bl	printk
	b	.LBB0_7
.Ltmp10:
.LBB0_6:
	.loc	3 0 0 is_stmt 0         // kernel/drivers/mmc/core/hisi_mmc_bkops.c:0:0
	mov	w19, wzr
.LBB0_7:
	.loc	3 120 1 is_stmt 1       // kernel/drivers/mmc/core/hisi_mmc_bkops.c:120:1
	mov	w0, w19
	ldp	x29, x30, [sp, #32]     // 16-byte Folded Reload
	ldp	x20, x19, [sp, #16]     // 16-byte Folded Reload
	add	sp, sp, #48             // =48
	ret
.LBB0_8:
.Ltmp11:
	//DEBUG_VALUE: mmc_start_bkops:err <- $w19
	//DEBUG_VALUE: mmc_start_bkops:card <- $x20
	.loc	3 106 2                 // kernel/drivers/mmc/core/hisi_mmc_bkops.c:106:2
	ldr	w8, [x20, #868]
	orr	w8, w8, #0x20
	str	w8, [x20, #868]
	b	.LBB0_7
.Ltmp12:
.Lfunc_end0:
	.size	mmc_start_bkops, .Lfunc_end0-mmc_start_bkops
	.cfi_endproc
                                        // -- End function
	.section	.text.mmc_stop_bkops,"ax",@progbits
	.hidden	mmc_stop_bkops          // -- Begin function mmc_stop_bkops
	.globl	mmc_stop_bkops
	.p2align	2
	.type	mmc_stop_bkops,@function
mmc_stop_bkops:                         // @mmc_stop_bkops
.Lfunc_begin1:
	.loc	3 173 0                 // kernel/drivers/mmc/core/hisi_mmc_bkops.c:173:0
	.cfi_startproc
// %bb.0:
	//DEBUG_VALUE: mmc_stop_bkops:card <- $x0
	stp	x20, x19, [sp, #-32]!   // 16-byte Folded Spill
	stp	x29, x30, [sp, #16]     // 16-byte Folded Spill
	add	x29, sp, #16            // =16
	.cfi_def_cfa w29, 16
	.cfi_offset w30, -8
	.cfi_offset w29, -16
	.cfi_offset w19, -24
	.cfi_offset w20, -32
.Ltmp13:
	.loc	3 185 21 prologue_end   // kernel/drivers/mmc/core/hisi_mmc_bkops.c:185:21
	ldrb	w8, [x0, #1177]
	.loc	3 185 34 is_stmt 0      // kernel/drivers/mmc/core/hisi_mmc_bkops.c:185:34
	cbz	w8, .LBB1_16
.Ltmp14:
// %bb.1:
	//DEBUG_VALUE: mmc_stop_bkops:card <- $x0
	.loc	3 185 6                 // kernel/drivers/mmc/core/hisi_mmc_bkops.c:185:6
	ldrb	w8, [x0, #868]
	mov	x19, x0
.Ltmp15:
	//DEBUG_VALUE: mmc_stop_bkops:card <- $x19
	tbz	w8, #5, .LBB1_16
.Ltmp16:
// %bb.2:
	//DEBUG_VALUE: mmc_stop_bkops:card <- $x19
	//DEBUG_VALUE: hisi_mmc_send_hpi:card <- $x19
	//DEBUG_VALUE: hisi_mmc_send_hpi:retry_count <- 4
	.loc	3 126 32 is_stmt 1      // kernel/drivers/mmc/core/hisi_mmc_bkops.c:126:32
	ldr	x20, [x19]
.Ltmp17:
	//DEBUG_VALUE: hisi_mmc_send_hpi:host <- $x20
	.loc	3 141 9                 // kernel/drivers/mmc/core/hisi_mmc_bkops.c:141:9
	mov	x0, x19
	bl	mmc_interrupt_hpi
.Ltmp18:
	//DEBUG_VALUE: hisi_mmc_send_hpi:err <- $w0
	.loc	3 142 12                // kernel/drivers/mmc/core/hisi_mmc_bkops.c:142:12
	cmn	w0, #22                 // =22
	b.eq	.LBB1_10
.Ltmp19:
// %bb.3:
	//DEBUG_VALUE: hisi_mmc_send_hpi:err <- $w0
	//DEBUG_VALUE: hisi_mmc_send_hpi:host <- $x20
	//DEBUG_VALUE: hisi_mmc_send_hpi:card <- $x19
	//DEBUG_VALUE: mmc_stop_bkops:card <- $x19
	cbz	w0, .LBB1_10
.Ltmp20:
// %bb.4:
	//DEBUG_VALUE: hisi_mmc_send_hpi:err <- $w0
	//DEBUG_VALUE: hisi_mmc_send_hpi:host <- $x20
	//DEBUG_VALUE: hisi_mmc_send_hpi:card <- $x19
	//DEBUG_VALUE: mmc_stop_bkops:card <- $x19
	//DEBUG_VALUE: hisi_mmc_send_hpi:retry_count <- 3
	.loc	3 141 9                 // kernel/drivers/mmc/core/hisi_mmc_bkops.c:141:9
	mov	x0, x19
.Ltmp21:
	bl	mmc_interrupt_hpi
.Ltmp22:
	//DEBUG_VALUE: hisi_mmc_send_hpi:err <- $w0
	.loc	3 142 12                // kernel/drivers/mmc/core/hisi_mmc_bkops.c:142:12
	cbz	w0, .LBB1_10
.Ltmp23:
// %bb.5:
	//DEBUG_VALUE: hisi_mmc_send_hpi:err <- $w0
	//DEBUG_VALUE: hisi_mmc_send_hpi:host <- $x20
	//DEBUG_VALUE: hisi_mmc_send_hpi:card <- $x19
	//DEBUG_VALUE: mmc_stop_bkops:card <- $x19
	cmn	w0, #22                 // =22
	b.eq	.LBB1_10
.Ltmp24:
// %bb.6:
	//DEBUG_VALUE: hisi_mmc_send_hpi:err <- $w0
	//DEBUG_VALUE: hisi_mmc_send_hpi:host <- $x20
	//DEBUG_VALUE: hisi_mmc_send_hpi:card <- $x19
	//DEBUG_VALUE: mmc_stop_bkops:card <- $x19
	//DEBUG_VALUE: hisi_mmc_send_hpi:retry_count <- 2
	.loc	3 141 9                 // kernel/drivers/mmc/core/hisi_mmc_bkops.c:141:9
	mov	x0, x19
.Ltmp25:
	bl	mmc_interrupt_hpi
.Ltmp26:
	//DEBUG_VALUE: hisi_mmc_send_hpi:err <- $w0
	.loc	3 142 12                // kernel/drivers/mmc/core/hisi_mmc_bkops.c:142:12
	cmn	w0, #22                 // =22
	b.eq	.LBB1_10
.Ltmp27:
// %bb.7:
	//DEBUG_VALUE: hisi_mmc_send_hpi:err <- $w0
	//DEBUG_VALUE: hisi_mmc_send_hpi:host <- $x20
	//DEBUG_VALUE: hisi_mmc_send_hpi:card <- $x19
	//DEBUG_VALUE: mmc_stop_bkops:card <- $x19
	cbz	w0, .LBB1_10
.Ltmp28:
// %bb.8:
	//DEBUG_VALUE: hisi_mmc_send_hpi:err <- $w0
	//DEBUG_VALUE: hisi_mmc_send_hpi:host <- $x20
	//DEBUG_VALUE: hisi_mmc_send_hpi:card <- $x19
	//DEBUG_VALUE: mmc_stop_bkops:card <- $x19
	//DEBUG_VALUE: hisi_mmc_send_hpi:retry_count <- 1
	.loc	3 141 9                 // kernel/drivers/mmc/core/hisi_mmc_bkops.c:141:9
	mov	x0, x19
.Ltmp29:
	bl	mmc_interrupt_hpi
.Ltmp30:
	//DEBUG_VALUE: hisi_mmc_send_hpi:err <- $w0
	.loc	3 142 12                // kernel/drivers/mmc/core/hisi_mmc_bkops.c:142:12
	cmn	w0, #22                 // =22
	b.eq	.LBB1_10
.Ltmp31:
// %bb.9:
	//DEBUG_VALUE: hisi_mmc_send_hpi:err <- $w0
	//DEBUG_VALUE: hisi_mmc_send_hpi:host <- $x20
	//DEBUG_VALUE: hisi_mmc_send_hpi:card <- $x19
	//DEBUG_VALUE: mmc_stop_bkops:card <- $x19
	cbnz	w0, .LBB1_17
.Ltmp32:
.LBB1_10:
	//DEBUG_VALUE: hisi_mmc_send_hpi:err <- $w0
	//DEBUG_VALUE: hisi_mmc_send_hpi:host <- $x20
	//DEBUG_VALUE: hisi_mmc_send_hpi:card <- $x19
	//DEBUG_VALUE: mmc_stop_bkops:card <- $x19
	.loc	3 148 33                // kernel/drivers/mmc/core/hisi_mmc_bkops.c:148:33
	cmn	w0, #22                 // =22
	b.eq	.LBB1_15
.Ltmp33:
// %bb.11:
	//DEBUG_VALUE: hisi_mmc_send_hpi:err <- $w0
	//DEBUG_VALUE: hisi_mmc_send_hpi:host <- $x20
	//DEBUG_VALUE: hisi_mmc_send_hpi:card <- $x19
	//DEBUG_VALUE: mmc_stop_bkops:card <- $x19
	cbz	w0, .LBB1_15
.Ltmp34:
.LBB1_12:
	//DEBUG_VALUE: hisi_mmc_send_hpi:host <- $x20
	//DEBUG_VALUE: hisi_mmc_send_hpi:card <- $x19
	//DEBUG_VALUE: mmc_stop_bkops:card <- $x19
	.loc	3 149 3                 // kernel/drivers/mmc/core/hisi_mmc_bkops.c:149:3
	adrp	x0, .L.str.1
	adrp	x1, .L__func__.hisi_mmc_send_hpi
	add	x0, x0, :lo12:.L.str.1
	add	x1, x1, :lo12:.L__func__.hisi_mmc_send_hpi
	mov	w2, #149
	bl	printk
.Ltmp35:
	.loc	3 156 15                // kernel/drivers/mmc/core/hisi_mmc_bkops.c:156:15
	ldr	x8, [x20, #1624]
	.loc	3 156 24 is_stmt 0      // kernel/drivers/mmc/core/hisi_mmc_bkops.c:156:24
	ldr	x8, [x8, #104]
	.loc	3 156 31                // kernel/drivers/mmc/core/hisi_mmc_bkops.c:156:31
	cbz	x8, .LBB1_14
.Ltmp36:
// %bb.13:
	//DEBUG_VALUE: hisi_mmc_send_hpi:host <- $x20
	//DEBUG_VALUE: hisi_mmc_send_hpi:card <- $x19
	//DEBUG_VALUE: mmc_stop_bkops:card <- $x19
	.loc	3 156 34                // kernel/drivers/mmc/core/hisi_mmc_bkops.c:156:34
	mov	x0, x20
	blr	x8
.Ltmp37:
	.loc	3 156 7                 // kernel/drivers/mmc/core/hisi_mmc_bkops.c:156:7
	cbz	w0, .LBB1_15
.Ltmp38:
.LBB1_14:
	//DEBUG_VALUE: hisi_mmc_send_hpi:host <- $x20
	//DEBUG_VALUE: hisi_mmc_send_hpi:card <- $x19
	//DEBUG_VALUE: mmc_stop_bkops:card <- $x19
	.loc	3 157 4 is_stmt 1       // kernel/drivers/mmc/core/hisi_mmc_bkops.c:157:4
	adrp	x0, .L.str.2
	adrp	x1, .L__func__.hisi_mmc_send_hpi
	add	x0, x0, :lo12:.L.str.2
	add	x1, x1, :lo12:.L__func__.hisi_mmc_send_hpi
	mov	w2, #157
	bl	printk
	.loc	3 158 4                 // kernel/drivers/mmc/core/hisi_mmc_bkops.c:158:4
	bl	dump_stack
.Ltmp39:
.LBB1_15:
	//DEBUG_VALUE: mmc_stop_bkops:card <- $x19
	.loc	3 204 2                 // kernel/drivers/mmc/core/hisi_mmc_bkops.c:204:2
	ldr	w8, [x19, #868]
	and	w8, w8, #0xffffffdf
	str	w8, [x19, #868]
.Ltmp40:
.LBB1_16:
	.loc	3 225 1                 // kernel/drivers/mmc/core/hisi_mmc_bkops.c:225:1
	ldp	x29, x30, [sp, #16]     // 16-byte Folded Reload
	mov	w0, wzr
	ldp	x20, x19, [sp], #32     // 16-byte Folded Reload
	ret
.LBB1_17:
.Ltmp41:
	//DEBUG_VALUE: hisi_mmc_send_hpi:err <- $w0
	//DEBUG_VALUE: hisi_mmc_send_hpi:host <- $x20
	//DEBUG_VALUE: hisi_mmc_send_hpi:card <- $x19
	//DEBUG_VALUE: mmc_stop_bkops:card <- $x19
	//DEBUG_VALUE: hisi_mmc_send_hpi:retry_count <- 0
	.loc	3 141 9                 // kernel/drivers/mmc/core/hisi_mmc_bkops.c:141:9
	mov	x0, x19
.Ltmp42:
	bl	mmc_interrupt_hpi
.Ltmp43:
	//DEBUG_VALUE: hisi_mmc_send_hpi:err <- undef
	.loc	3 0 9 is_stmt 0         // kernel/drivers/mmc/core/hisi_mmc_bkops.c:0:9
	b	.LBB1_12
.Ltmp44:
.Lfunc_end1:
	.size	mmc_stop_bkops, .Lfunc_end1-mmc_stop_bkops
	.cfi_endproc
                                        // -- End function
	.section	.text.mmc_bkops_start_stop,"ax",@progbits
	.p2align	2               // -- Begin function mmc_bkops_start_stop
	.type	mmc_bkops_start_stop,@function
mmc_bkops_start_stop:                   // @mmc_bkops_start_stop
.Lfunc_begin2:
	.loc	3 228 0 is_stmt 1       // kernel/drivers/mmc/core/hisi_mmc_bkops.c:228:0
	.cfi_startproc
// %bb.0:
	//DEBUG_VALUE: mmc_bkops_start_stop:bkops_data <- $x0
	//DEBUG_VALUE: mmc_bkops_start_stop:start <- $w1
	sub	sp, sp, #48             // =48
	stp	x20, x19, [sp, #16]     // 16-byte Folded Spill
	stp	x29, x30, [sp, #32]     // 16-byte Folded Spill
	add	x29, sp, #32            // =32
	.cfi_def_cfa w29, 16
	.cfi_offset w30, -8
	.cfi_offset w29, -16
	.cfi_offset w19, -24
	.cfi_offset w20, -32
.Ltmp45:
	//DEBUG_VALUE: mmc_bkops_start_stop:card <- $x0
	mov	w20, w1
	mov	x19, x0
.Ltmp46:
	//DEBUG_VALUE: mmc_bkops_start_stop:card <- $x19
	//DEBUG_VALUE: mmc_bkops_start_stop:start <- $w20
	//DEBUG_VALUE: mmc_bkops_start_stop:bkops_data <- $x19
	.loc	3 232 6 prologue_end    // kernel/drivers/mmc/core/hisi_mmc_bkops.c:232:6
	cbnz	x0, .LBB2_2
.Ltmp47:
// %bb.1:
	//DEBUG_VALUE: mmc_bkops_start_stop:bkops_data <- $x19
	//DEBUG_VALUE: mmc_bkops_start_stop:start <- $w20
	//DEBUG_VALUE: mmc_bkops_start_stop:card <- $x19
	.loc	3 233 3                 // kernel/drivers/mmc/core/hisi_mmc_bkops.c:233:3
	mov	w0, #35
	movk	w0, #32768, lsl #16
	mov	x1, xzr
	mov	x2, xzr
	bl	rdr_syserr_process_for_ap
.Ltmp48:
.LBB2_2:
	//DEBUG_VALUE: mmc_bkops_start_stop:bkops_data <- $x19
	//DEBUG_VALUE: mmc_bkops_start_stop:start <- $w20
	//DEBUG_VALUE: mmc_bkops_start_stop:card <- $x19
	.loc	3 235 2                 // kernel/drivers/mmc/core/hisi_mmc_bkops.c:235:2
	mov	x0, x19
	bl	mmc_get_card
.Ltmp49:
	.loc	3 236 6                 // kernel/drivers/mmc/core/hisi_mmc_bkops.c:236:6
	ldr	x8, [x19]
	ldr	x8, [x8, #1240]
.Ltmp50:
	.loc	3 236 6 is_stmt 0       // kernel/drivers/mmc/core/hisi_mmc_bkops.c:236:6
	ldrb	w8, [x8, #868]
	tbnz	w8, #6, .LBB2_6
.Ltmp51:
// %bb.3:
	//DEBUG_VALUE: mmc_bkops_start_stop:bkops_data <- $x19
	//DEBUG_VALUE: mmc_bkops_start_stop:start <- $w20
	//DEBUG_VALUE: mmc_bkops_start_stop:card <- $x19
	.loc	3 240 6 is_stmt 1       // kernel/drivers/mmc/core/hisi_mmc_bkops.c:240:6
	cmp	w20, #1                 // =1
	b.eq	.LBB2_7
.Ltmp52:
// %bb.4:
	//DEBUG_VALUE: mmc_bkops_start_stop:bkops_data <- $x19
	//DEBUG_VALUE: mmc_bkops_start_stop:start <- $w20
	//DEBUG_VALUE: mmc_bkops_start_stop:card <- $x19
	cbnz	w20, .LBB2_13
.Ltmp53:
// %bb.5:
	//DEBUG_VALUE: mmc_bkops_start_stop:bkops_data <- $x19
	//DEBUG_VALUE: mmc_bkops_start_stop:start <- $w20
	//DEBUG_VALUE: mmc_bkops_start_stop:card <- $x19
	.loc	3 241 9                 // kernel/drivers/mmc/core/hisi_mmc_bkops.c:241:9
	mov	x0, x19
	bl	mmc_stop_bkops
.Ltmp54:
	//DEBUG_VALUE: mmc_bkops_start_stop:ret <- 0
	.loc	3 0 9 is_stmt 0         // kernel/drivers/mmc/core/hisi_mmc_bkops.c:0:9
	b	.LBB2_15
.Ltmp55:
.LBB2_6:
	//DEBUG_VALUE: mmc_bkops_start_stop:bkops_data <- $x19
	//DEBUG_VALUE: mmc_bkops_start_stop:start <- $w20
	//DEBUG_VALUE: mmc_bkops_start_stop:card <- $x19
	mov	w20, #-11
.Ltmp56:
	b	.LBB2_15
.Ltmp57:
.LBB2_7:
	//DEBUG_VALUE: mmc_bkops_start_stop:bkops_data <- $x19
	//DEBUG_VALUE: mmc_bkops_start_stop:start <- $w20
	//DEBUG_VALUE: mmc_bkops_start_stop:card <- $x19
	//DEBUG_VALUE: mmc_start_bkops:card <- $x19
	//DEBUG_VALUE: mmc_start_bkops:from_exception <- undef
	.loc	3 85 21 is_stmt 1       // kernel/drivers/mmc/core/hisi_mmc_bkops.c:85:21
	ldrb	w8, [x19, #1177]
	.loc	3 85 34 is_stmt 0       // kernel/drivers/mmc/core/hisi_mmc_bkops.c:85:34
	cbz	w8, .LBB2_14
.Ltmp58:
// %bb.8:
	//DEBUG_VALUE: mmc_start_bkops:card <- $x19
	//DEBUG_VALUE: mmc_bkops_start_stop:bkops_data <- $x19
	//DEBUG_VALUE: mmc_bkops_start_stop:start <- $w20
	//DEBUG_VALUE: mmc_bkops_start_stop:card <- $x19
	.loc	3 85 6                  // kernel/drivers/mmc/core/hisi_mmc_bkops.c:85:6
	ldrb	w8, [x19, #868]
	tbnz	w8, #5, .LBB2_14
.Ltmp59:
// %bb.9:
	//DEBUG_VALUE: mmc_start_bkops:card <- $x19
	//DEBUG_VALUE: mmc_bkops_start_stop:bkops_data <- $x19
	//DEBUG_VALUE: mmc_bkops_start_stop:start <- $w20
	//DEBUG_VALUE: mmc_bkops_start_stop:card <- $x19
	.loc	3 88 8 is_stmt 1        // kernel/drivers/mmc/core/hisi_mmc_bkops.c:88:8
	orr	w1, wzr, #0x1
	mov	w2, #164
	orr	w3, wzr, #0x1
	orr	w7, wzr, #0x1
	mov	x0, x19
	mov	w4, wzr
	mov	w5, wzr
	mov	w6, wzr
	strb	wzr, [sp]
	bl	__mmc_switch
	mov	w20, w0
.Ltmp60:
	//DEBUG_VALUE: mmc_start_bkops:err <- $w20
	.loc	3 97 6                  // kernel/drivers/mmc/core/hisi_mmc_bkops.c:97:6
	cbz	w0, .LBB2_16
.Ltmp61:
// %bb.10:
	//DEBUG_VALUE: mmc_start_bkops:err <- $w20
	//DEBUG_VALUE: mmc_start_bkops:card <- $x19
	//DEBUG_VALUE: mmc_bkops_start_stop:bkops_data <- $x19
	//DEBUG_VALUE: mmc_bkops_start_stop:card <- $x19
	.loc	3 98 3                  // kernel/drivers/mmc/core/hisi_mmc_bkops.c:98:3
	ldr	x8, [x19]
.Ltmp62:
	//DEBUG_VALUE: dev_name:dev <- [DW_OP_plus_uconst 8, DW_OP_stack_value] $x8
	//DEBUG_VALUE: kobject_name:kobj <- [DW_OP_plus_uconst 8, DW_OP_plus_uconst 16, DW_OP_stack_value] $x8
	.loc	17 981 11               // kernel/include/linux/device.h:981:11
	ldr	x1, [x8, #88]
.Ltmp63:
	.loc	17 981 6 is_stmt 0      // kernel/include/linux/device.h:981:6
	cbnz	x1, .LBB2_12
.Ltmp64:
// %bb.11:
	//DEBUG_VALUE: kobject_name:kobj <- [DW_OP_plus_uconst 8, DW_OP_plus_uconst 16, DW_OP_stack_value] $x8
	//DEBUG_VALUE: dev_name:dev <- [DW_OP_plus_uconst 8, DW_OP_stack_value] $x8
	//DEBUG_VALUE: mmc_start_bkops:err <- $w20
	//DEBUG_VALUE: mmc_start_bkops:card <- $x19
	//DEBUG_VALUE: mmc_bkops_start_stop:bkops_data <- $x19
	//DEBUG_VALUE: mmc_bkops_start_stop:card <- $x19
	.loc	25 91 15 is_stmt 1      // kernel/include/linux/kobject.h:91:15
	ldr	x1, [x8, #24]
.Ltmp65:
.LBB2_12:
	//DEBUG_VALUE: mmc_start_bkops:err <- $w20
	//DEBUG_VALUE: mmc_start_bkops:card <- $x19
	//DEBUG_VALUE: mmc_bkops_start_stop:bkops_data <- $x19
	//DEBUG_VALUE: mmc_bkops_start_stop:card <- $x19
	.loc	3 98 3                  // kernel/drivers/mmc/core/hisi_mmc_bkops.c:98:3
	adrp	x0, .L.str
	add	x0, x0, :lo12:.L.str
	mov	w2, w20
	bl	printk
	b	.LBB2_15
.Ltmp66:
.LBB2_13:
	//DEBUG_VALUE: mmc_bkops_start_stop:bkops_data <- $x19
	//DEBUG_VALUE: mmc_bkops_start_stop:start <- $w20
	//DEBUG_VALUE: mmc_bkops_start_stop:card <- $x19
	.loc	3 245 3                 // kernel/drivers/mmc/core/hisi_mmc_bkops.c:245:3
	adrp	x0, .L.str.3
	adrp	x1, .L__func__.mmc_bkops_start_stop
	add	x0, x0, :lo12:.L.str.3
	add	x1, x1, :lo12:.L__func__.mmc_bkops_start_stop
	mov	w2, w20
	bl	printk
	mov	w20, #-22
.Ltmp67:
	//DEBUG_VALUE: mmc_bkops_start_stop:ret <- -22
	.loc	3 0 3 is_stmt 0         // kernel/drivers/mmc/core/hisi_mmc_bkops.c:0:3
	b	.LBB2_15
.Ltmp68:
.LBB2_14:
	//DEBUG_VALUE: mmc_start_bkops:card <- $x19
	//DEBUG_VALUE: mmc_bkops_start_stop:bkops_data <- $x19
	//DEBUG_VALUE: mmc_bkops_start_stop:start <- $w20
	//DEBUG_VALUE: mmc_bkops_start_stop:card <- $x19
	mov	w20, wzr
.Ltmp69:
.LBB2_15:
	//DEBUG_VALUE: mmc_bkops_start_stop:bkops_data <- $x19
	//DEBUG_VALUE: mmc_bkops_start_stop:card <- $x19
	//DEBUG_VALUE: mmc_bkops_start_stop:ret <- $w20
	//DEBUG_LABEL: mmc_bkops_start_stop:put_card
	.loc	3 249 2 is_stmt 1       // kernel/drivers/mmc/core/hisi_mmc_bkops.c:249:2
	mov	x0, x19
	bl	mmc_put_card
	.loc	3 251 2                 // kernel/drivers/mmc/core/hisi_mmc_bkops.c:251:2
	mov	w0, w20
	ldp	x29, x30, [sp, #32]     // 16-byte Folded Reload
	ldp	x20, x19, [sp, #16]     // 16-byte Folded Reload
.Ltmp70:
	add	sp, sp, #48             // =48
	ret
.LBB2_16:
.Ltmp71:
	//DEBUG_VALUE: mmc_start_bkops:err <- $w20
	//DEBUG_VALUE: mmc_start_bkops:card <- $x19
	//DEBUG_VALUE: mmc_bkops_start_stop:bkops_data <- $x19
	//DEBUG_VALUE: mmc_bkops_start_stop:card <- $x19
	.loc	3 106 2                 // kernel/drivers/mmc/core/hisi_mmc_bkops.c:106:2
	ldr	w8, [x19, #868]
	orr	w8, w8, #0x20
	str	w8, [x19, #868]
	b	.LBB2_15
.Ltmp72:
.Lfunc_end2:
	.size	mmc_bkops_start_stop, .Lfunc_end2-mmc_bkops_start_stop
	.cfi_endproc
                                        // -- End function
	.section	.text.mmc_bkops_status_query,"ax",@progbits
	.p2align	2               // -- Begin function mmc_bkops_status_query
	.type	mmc_bkops_status_query,@function
mmc_bkops_status_query:                 // @mmc_bkops_status_query
.Lfunc_begin3:
	.loc	3 35 0                  // kernel/drivers/mmc/core/hisi_mmc_bkops.c:35:0
	.cfi_startproc
// %bb.0:
	//DEBUG_VALUE: mmc_bkops_status_query:bkops_data <- $x0
	//DEBUG_VALUE: mmc_bkops_status_query:status <- $x1
	str	x21, [sp, #-48]!        // 8-byte Folded Spill
	stp	x20, x19, [sp, #16]     // 16-byte Folded Spill
	stp	x29, x30, [sp, #32]     // 16-byte Folded Spill
	add	x29, sp, #32            // =32
	.cfi_def_cfa w29, 16
	.cfi_offset w30, -8
	.cfi_offset w29, -16
	.cfi_offset w19, -24
	.cfi_offset w20, -32
	.cfi_offset w21, -48
.Ltmp73:
	//DEBUG_VALUE: mmc_bkops_status_query:card <- $x0
	mov	x20, x1
	mov	x19, x0
.Ltmp74:
	//DEBUG_VALUE: mmc_bkops_status_query:ret <- 0
	//DEBUG_VALUE: mmc_bkops_status_query:card <- $x19
	//DEBUG_VALUE: mmc_bkops_status_query:status <- $x20
	//DEBUG_VALUE: mmc_bkops_status_query:bkops_data <- $x19
	.loc	3 42 6 prologue_end     // kernel/drivers/mmc/core/hisi_mmc_bkops.c:42:6
	cbnz	x0, .LBB3_2
.Ltmp75:
// %bb.1:
	//DEBUG_VALUE: mmc_bkops_status_query:bkops_data <- $x19
	//DEBUG_VALUE: mmc_bkops_status_query:status <- $x20
	//DEBUG_VALUE: mmc_bkops_status_query:card <- $x19
	.loc	3 43 3                  // kernel/drivers/mmc/core/hisi_mmc_bkops.c:43:3
	mov	w0, #35
	movk	w0, #32768, lsl #16
	mov	x1, xzr
	mov	x2, xzr
	bl	rdr_syserr_process_for_ap
.Ltmp76:
.LBB3_2:
	//DEBUG_VALUE: mmc_bkops_status_query:bkops_data <- $x19
	//DEBUG_VALUE: mmc_bkops_status_query:status <- $x20
	//DEBUG_VALUE: mmc_bkops_status_query:card <- $x19
	.loc	3 45 2                  // kernel/drivers/mmc/core/hisi_mmc_bkops.c:45:2
	mov	x0, x19
	bl	mmc_get_card
.Ltmp77:
	.loc	3 46 6                  // kernel/drivers/mmc/core/hisi_mmc_bkops.c:46:6
	ldr	x8, [x19]
	ldr	x8, [x8, #1240]
.Ltmp78:
	.loc	3 46 6 is_stmt 0        // kernel/drivers/mmc/core/hisi_mmc_bkops.c:46:6
	ldrb	w8, [x8, #868]
	tbnz	w8, #6, .LBB3_7
.Ltmp79:
// %bb.3:
	//DEBUG_VALUE: mmc_bkops_status_query:bkops_data <- $x19
	//DEBUG_VALUE: mmc_bkops_status_query:status <- $x20
	//DEBUG_VALUE: mmc_bkops_status_query:card <- $x19
	.loc	3 49 8 is_stmt 1        // kernel/drivers/mmc/core/hisi_mmc_bkops.c:49:8
	mov	x0, x19
	bl	mmc_read_bkops_status
	mov	w21, w0
.Ltmp80:
	//DEBUG_VALUE: mmc_bkops_status_query:ret <- $w21
	.loc	3 61 6                  // kernel/drivers/mmc/core/hisi_mmc_bkops.c:61:6
	cbz	w0, .LBB3_8
.Ltmp81:
// %bb.4:
	//DEBUG_VALUE: mmc_bkops_status_query:ret <- $w21
	//DEBUG_VALUE: mmc_bkops_status_query:bkops_data <- $x19
	//DEBUG_VALUE: mmc_bkops_status_query:status <- $x20
	//DEBUG_VALUE: mmc_bkops_status_query:card <- $x19
	.loc	3 62 3                  // kernel/drivers/mmc/core/hisi_mmc_bkops.c:62:3
	ldr	x8, [x19]
.Ltmp82:
	//DEBUG_VALUE: dev_name:dev <- [DW_OP_plus_uconst 8, DW_OP_stack_value] $x8
	//DEBUG_VALUE: kobject_name:kobj <- [DW_OP_plus_uconst 8, DW_OP_plus_uconst 16, DW_OP_stack_value] $x8
	.loc	17 981 11               // kernel/include/linux/device.h:981:11
	ldr	x1, [x8, #88]
.Ltmp83:
	.loc	17 981 6 is_stmt 0      // kernel/include/linux/device.h:981:6
	cbnz	x1, .LBB3_6
.Ltmp84:
// %bb.5:
	//DEBUG_VALUE: kobject_name:kobj <- [DW_OP_plus_uconst 8, DW_OP_plus_uconst 16, DW_OP_stack_value] $x8
	//DEBUG_VALUE: dev_name:dev <- [DW_OP_plus_uconst 8, DW_OP_stack_value] $x8
	//DEBUG_VALUE: mmc_bkops_status_query:ret <- $w21
	//DEBUG_VALUE: mmc_bkops_status_query:bkops_data <- $x19
	//DEBUG_VALUE: mmc_bkops_status_query:status <- $x20
	//DEBUG_VALUE: mmc_bkops_status_query:card <- $x19
	.loc	25 91 15 is_stmt 1      // kernel/include/linux/kobject.h:91:15
	ldr	x1, [x8, #24]
.Ltmp85:
.LBB3_6:
	//DEBUG_VALUE: mmc_bkops_status_query:ret <- $w21
	//DEBUG_VALUE: mmc_bkops_status_query:bkops_data <- $x19
	//DEBUG_VALUE: mmc_bkops_status_query:status <- $x20
	//DEBUG_VALUE: mmc_bkops_status_query:card <- $x19
	.loc	3 62 3                  // kernel/drivers/mmc/core/hisi_mmc_bkops.c:62:3
	adrp	x0, .L.str.4
	add	x0, x0, :lo12:.L.str.4
	mov	w2, w21
	bl	printk
	mov	w8, wzr
	b	.LBB3_9
.Ltmp86:
.LBB3_7:
	//DEBUG_VALUE: mmc_bkops_status_query:bkops_data <- $x19
	//DEBUG_VALUE: mmc_bkops_status_query:status <- $x20
	//DEBUG_VALUE: mmc_bkops_status_query:card <- $x19
	.loc	3 0 0 is_stmt 0         // kernel/drivers/mmc/core/hisi_mmc_bkops.c:0:0
	mov	w21, wzr
	b	.LBB3_10
.Ltmp87:
.LBB3_8:
	//DEBUG_VALUE: mmc_bkops_status_query:ret <- $w21
	//DEBUG_VALUE: mmc_bkops_status_query:bkops_data <- $x19
	//DEBUG_VALUE: mmc_bkops_status_query:status <- $x20
	//DEBUG_VALUE: mmc_bkops_status_query:card <- $x19
	.loc	3 71 26 is_stmt 1       // kernel/drivers/mmc/core/hisi_mmc_bkops.c:71:26
	ldrb	w8, [x19, #1242]
.Ltmp88:
.LBB3_9:
	//DEBUG_VALUE: mmc_bkops_status_query:ret <- $w21
	//DEBUG_VALUE: mmc_bkops_status_query:bkops_data <- $x19
	//DEBUG_VALUE: mmc_bkops_status_query:status <- $x20
	//DEBUG_VALUE: mmc_bkops_status_query:card <- $x19
	.loc	3 0 0 is_stmt 0         // kernel/drivers/mmc/core/hisi_mmc_bkops.c:0:0
	str	w8, [x20]
.Ltmp89:
.LBB3_10:
	//DEBUG_VALUE: mmc_bkops_status_query:bkops_data <- $x19
	//DEBUG_VALUE: mmc_bkops_status_query:status <- $x20
	//DEBUG_VALUE: mmc_bkops_status_query:card <- $x19
	//DEBUG_VALUE: mmc_bkops_status_query:ret <- $w21
	//DEBUG_LABEL: mmc_bkops_status_query:put_card
	.loc	3 74 2 is_stmt 1        // kernel/drivers/mmc/core/hisi_mmc_bkops.c:74:2
	mov	x0, x19
	bl	mmc_put_card
	.loc	3 75 2                  // kernel/drivers/mmc/core/hisi_mmc_bkops.c:75:2
	ldp	x29, x30, [sp, #32]     // 16-byte Folded Reload
	ldp	x20, x19, [sp, #16]     // 16-byte Folded Reload
.Ltmp90:
	mov	w0, w21
	ldr	x21, [sp], #48          // 8-byte Folded Reload
.Ltmp91:
	ret
.Ltmp92:
.Lfunc_end3:
	.size	mmc_bkops_status_query, .Lfunc_end3-mmc_bkops_status_query
	.cfi_endproc
                                        // -- End function
	.section	.text.zodiac_mmc_is_bkops_needed,"ax",@progbits
	.hidden	zodiac_mmc_is_bkops_needed // -- Begin function zodiac_mmc_is_bkops_needed
	.globl	zodiac_mmc_is_bkops_needed
	.p2align	2
	.type	zodiac_mmc_is_bkops_needed,@function
zodiac_mmc_is_bkops_needed:             // @zodiac_mmc_is_bkops_needed
.Lfunc_begin4:
	.loc	3 276 0                 // kernel/drivers/mmc/core/hisi_mmc_bkops.c:276:0
	.cfi_startproc
// %bb.0:
	//DEBUG_VALUE: zodiac_mmc_is_bkops_needed:card <- $x0
	sub	sp, sp, #48             // =48
	stp	x29, x30, [sp, #32]     // 16-byte Folded Spill
	add	x29, sp, #32            // =32
	.cfi_def_cfa w29, 16
	.cfi_offset w30, -8
	.cfi_offset w29, -16
	adrp	x8, __stack_chk_guard
	ldr	x8, [x8, :lo12:__stack_chk_guard]
.Ltmp93:
	.loc	3 284 10 prologue_end   // kernel/drivers/mmc/core/hisi_mmc_bkops.c:284:10
	adrp	x1, micron_mmc_bkops_cid1
	add	x1, x1, :lo12:micron_mmc_bkops_cid1
	mov	w2, #9
	stur	x8, [x29, #-8]
	//DEBUG_VALUE: zodiac_mmc_is_bkops_needed:card <- $x0
	.loc	3 280 30                // kernel/drivers/mmc/core/hisi_mmc_bkops.c:280:30
	ldr	w8, [x0, #900]
	rev	w8, w8
	.loc	3 280 28 is_stmt 0      // kernel/drivers/mmc/core/hisi_mmc_bkops.c:280:28
	str	w8, [sp, #12]
	.loc	3 281 30 is_stmt 1      // kernel/drivers/mmc/core/hisi_mmc_bkops.c:281:30
	ldr	w8, [x0, #904]
	rev	w8, w8
	.loc	3 281 28 is_stmt 0      // kernel/drivers/mmc/core/hisi_mmc_bkops.c:281:28
	str	w8, [sp, #16]
	.loc	3 282 30 is_stmt 1      // kernel/drivers/mmc/core/hisi_mmc_bkops.c:282:30
	ldr	w8, [x0, #908]
	.loc	3 284 10                // kernel/drivers/mmc/core/hisi_mmc_bkops.c:284:10
	add	x0, sp, #12             // =12
.Ltmp94:
	.loc	3 282 30                // kernel/drivers/mmc/core/hisi_mmc_bkops.c:282:30
	rev	w8, w8
	.loc	3 282 28 is_stmt 0      // kernel/drivers/mmc/core/hisi_mmc_bkops.c:282:28
	str	w8, [sp, #20]
	.loc	3 284 10 is_stmt 1      // kernel/drivers/mmc/core/hisi_mmc_bkops.c:284:10
	bl	memcmp
	.loc	3 284 79 is_stmt 0      // kernel/drivers/mmc/core/hisi_mmc_bkops.c:284:79
	cbz	w0, .LBB4_3
// %bb.1:
	.loc	3 285 10 is_stmt 1      // kernel/drivers/mmc/core/hisi_mmc_bkops.c:285:10
	adrp	x1, micron_mmc_bkops_cid2
	add	x1, x1, :lo12:micron_mmc_bkops_cid2
	add	x0, sp, #12             // =12
	mov	w2, #9
	bl	memcmp
	.loc	3 285 79 is_stmt 0      // kernel/drivers/mmc/core/hisi_mmc_bkops.c:285:79
	cbz	w0, .LBB4_3
// %bb.2:
	.loc	3 286 10 is_stmt 1      // kernel/drivers/mmc/core/hisi_mmc_bkops.c:286:10
	adrp	x1, micron_mmc_bkops_cid3
	add	x1, x1, :lo12:micron_mmc_bkops_cid3
	add	x0, sp, #12             // =12
	mov	w2, #9
	bl	memcmp
	.loc	3 286 9 is_stmt 0       // kernel/drivers/mmc/core/hisi_mmc_bkops.c:286:9
	cmp	w0, #0                  // =0
	cset	w0, eq
	b	.LBB4_4
.LBB4_3:
	.loc	3 0 9                   // kernel/drivers/mmc/core/hisi_mmc_bkops.c:0:9
	orr	w0, wzr, #0x1
.LBB4_4:
	adrp	x9, __stack_chk_guard
	ldur	x8, [x29, #-8]
	ldr	x9, [x9, :lo12:__stack_chk_guard]
	cmp	x9, x8
	b.ne	.LBB4_6
// %bb.5:
	.loc	3 284 2 is_stmt 1       // kernel/drivers/mmc/core/hisi_mmc_bkops.c:284:2
	ldp	x29, x30, [sp, #32]     // 16-byte Folded Reload
	add	sp, sp, #48             // =48
	ret
.Ltmp95:
.LBB4_6:
	.loc	3 0 2 is_stmt 0         // kernel/drivers/mmc/core/hisi_mmc_bkops.c:0:2
	bl	__stack_chk_fail
.Lfunc_end4:
	.size	zodiac_mmc_is_bkops_needed, .Lfunc_end4-zodiac_mmc_is_bkops_needed
	.cfi_endproc
                                        // -- End function
	.section	.text.hisi_mmc_manual_bkops_config,"ax",@progbits
	.hidden	hisi_mmc_manual_bkops_config // -- Begin function hisi_mmc_manual_bkops_config
	.globl	hisi_mmc_manual_bkops_config
	.p2align	2
	.type	hisi_mmc_manual_bkops_config,@function
hisi_mmc_manual_bkops_config:           // @hisi_mmc_manual_bkops_config
.Lfunc_begin5:
	.loc	3 296 0 is_stmt 1       // kernel/drivers/mmc/core/hisi_mmc_bkops.c:296:0
	.cfi_startproc
// %bb.0:
	//DEBUG_VALUE: hisi_mmc_manual_bkops_config:q <- $x0
	str	x21, [sp, #-48]!        // 8-byte Folded Spill
	stp	x20, x19, [sp, #16]     // 16-byte Folded Spill
	stp	x29, x30, [sp, #32]     // 16-byte Folded Spill
	add	x29, sp, #32            // =32
	.cfi_def_cfa w29, 16
	.cfi_offset w30, -8
	.cfi_offset w29, -16
	.cfi_offset w19, -24
	.cfi_offset w20, -32
	.cfi_offset w21, -48
.Ltmp96:
	.loc	3 297 28 prologue_end   // kernel/drivers/mmc/core/hisi_mmc_bkops.c:297:28
	ldr	x8, [x0, #480]
.Ltmp97:
	//DEBUG_VALUE: hisi_mmc_manual_bkops_config:mq <- $x8
	.loc	3 0 28 is_stmt 0        // kernel/drivers/mmc/core/hisi_mmc_bkops.c:0:28
	mov	x20, x0
.Ltmp98:
	//DEBUG_VALUE: hisi_mmc_manual_bkops_config:q <- $x20
	.loc	3 298 30 is_stmt 1      // kernel/drivers/mmc/core/hisi_mmc_bkops.c:298:30
	ldr	x21, [x8]
.Ltmp99:
	//DEBUG_VALUE: hisi_mmc_manual_bkops_config:mmc_bkops <- 0
	//DEBUG_VALUE: hisi_mmc_manual_bkops_config:card <- $x21
	.loc	3 301 14                // kernel/drivers/mmc/core/hisi_mmc_bkops.c:301:14
	bl	mas_bkops_alloc
.Ltmp100:
	.loc	3 302 6                 // kernel/drivers/mmc/core/hisi_mmc_bkops.c:302:6
	cbz	x0, .LBB5_3
.Ltmp101:
// %bb.1:
	//DEBUG_VALUE: hisi_mmc_manual_bkops_config:card <- $x21
	//DEBUG_VALUE: hisi_mmc_manual_bkops_config:q <- $x20
	.loc	3 308 24                // kernel/drivers/mmc/core/hisi_mmc_bkops.c:308:24
	ldr	x10, [x0, #128]
	orr	w8, wzr, #0x1
	.loc	3 306 23                // kernel/drivers/mmc/core/hisi_mmc_bkops.c:306:23
	adrp	x9, mmc_bkops_ops
	add	x9, x9, :lo12:mmc_bkops_ops
	mov	w11, #3600
	.loc	3 305 22                // kernel/drivers/mmc/core/hisi_mmc_bkops.c:305:22
	str	w8, [x0]
	.loc	3 308 24                // kernel/drivers/mmc/core/hisi_mmc_bkops.c:308:24
	orr	x8, x10, #0x10
	.loc	3 306 23                // kernel/drivers/mmc/core/hisi_mmc_bkops.c:306:23
	stp	x9, x21, [x0, #8]
	.loc	3 308 24                // kernel/drivers/mmc/core/hisi_mmc_bkops.c:308:24
	str	x8, [x0, #128]
	.loc	3 309 34                // kernel/drivers/mmc/core/hisi_mmc_bkops.c:309:34
	str	x11, [x0, #208]
.Ltmp102:
	.loc	3 314 43                // kernel/drivers/mmc/core/hisi_mmc_bkops.c:314:43
	ldr	x2, [x21, #1464]
	mov	x19, x0
.Ltmp103:
	//DEBUG_VALUE: hisi_mmc_manual_bkops_config:mmc_bkops <- $x19
	.loc	3 310 18                // kernel/drivers/mmc/core/hisi_mmc_bkops.c:310:18
	str	x0, [x21, #1784]
.Ltmp104:
	.loc	3 314 6                 // kernel/drivers/mmc/core/hisi_mmc_bkops.c:314:6
	mov	x0, x20
	mov	x1, x19
	bl	mas_bkops_enable
.Ltmp105:
	.loc	3 314 6 is_stmt 0       // kernel/drivers/mmc/core/hisi_mmc_bkops.c:314:6
	cbz	w0, .LBB5_4
.Ltmp106:
// %bb.2:
	//DEBUG_VALUE: hisi_mmc_manual_bkops_config:mmc_bkops <- $x19
	//DEBUG_VALUE: hisi_mmc_manual_bkops_config:card <- $x21
	//DEBUG_VALUE: hisi_mmc_manual_bkops_config:q <- $x20
	//DEBUG_LABEL: hisi_mmc_manual_bkops_config:free_mmc_bkops
	.loc	3 319 2 is_stmt 1       // kernel/drivers/mmc/core/hisi_mmc_bkops.c:319:2
	mov	x0, x19
	bl	kfree
	mov	w0, #-11
	b	.LBB5_4
.Ltmp107:
.LBB5_3:
	//DEBUG_VALUE: hisi_mmc_manual_bkops_config:card <- $x21
	//DEBUG_VALUE: hisi_mmc_manual_bkops_config:q <- $x20
	.loc	3 0 2 is_stmt 0         // kernel/drivers/mmc/core/hisi_mmc_bkops.c:0:2
	mov	w0, #-12
.Ltmp108:
.LBB5_4:
	//DEBUG_VALUE: hisi_mmc_manual_bkops_config:card <- $x21
	//DEBUG_VALUE: hisi_mmc_manual_bkops_config:q <- $x20
	.loc	3 321 1 is_stmt 1       // kernel/drivers/mmc/core/hisi_mmc_bkops.c:321:1
	ldp	x29, x30, [sp, #32]     // 16-byte Folded Reload
	ldp	x20, x19, [sp, #16]     // 16-byte Folded Reload
.Ltmp109:
	ldr	x21, [sp], #48          // 8-byte Folded Reload
.Ltmp110:
	ret
.Ltmp111:
.Lfunc_end5:
	.size	hisi_mmc_manual_bkops_config, .Lfunc_end5-hisi_mmc_manual_bkops_config
	.cfi_endproc
                                        // -- End function
	.type	.L.str,@object          // @.str
	.section	.rodata.str1.1,"aMS",@progbits,1
.L.str:
	.asciz	"\0013%s: Error %d starting bkops\n"
	.size	.L.str, 31

	.hidden	mmc_bkops_ops           // @mmc_bkops_ops
	.type	mmc_bkops_ops,@object
	.section	.data.mmc_bkops_ops,"aw",@progbits
	.globl	mmc_bkops_ops
	.p2align	3
mmc_bkops_ops:
	.xword	mmc_bkops_start_stop
	.xword	mmc_bkops_status_query
	.size	mmc_bkops_ops, 16

	.type	micron_mmc_bkops_cid1,@object // @micron_mmc_bkops_cid1
	.section	.data.micron_mmc_bkops_cid1,"aw",@progbits
micron_mmc_bkops_cid1:
	.ascii	"\023\001NQ3J97V"
	.size	micron_mmc_bkops_cid1, 9

	.type	micron_mmc_bkops_cid2,@object // @micron_mmc_bkops_cid2
	.section	.data.micron_mmc_bkops_cid2,"aw",@progbits
micron_mmc_bkops_cid2:
	.ascii	"\023\001NQ3J96V"
	.size	micron_mmc_bkops_cid2, 9

	.type	micron_mmc_bkops_cid3,@object // @micron_mmc_bkops_cid3
	.section	.data.micron_mmc_bkops_cid3,"aw",@progbits
micron_mmc_bkops_cid3:
	.ascii	"\023\001NQ3J96R"
	.size	micron_mmc_bkops_cid3, 9

	.type	.L.str.1,@object        // @.str.1
	.section	.rodata.str1.1,"aMS",@progbits,1
.L.str.1:
	.asciz	"\0013%s %d HPI failed! do zodiac_mmc_reset\n"
	.size	.L.str.1, 41

	.type	.L__func__.hisi_mmc_send_hpi,@object // @__func__.hisi_mmc_send_hpi
.L__func__.hisi_mmc_send_hpi:
	.asciz	"hisi_mmc_send_hpi"
	.size	.L__func__.hisi_mmc_send_hpi, 18

	.type	.L.str.2,@object        // @.str.2
.L.str.2:
	.asciz	"\0013%s %d zodiac_mmc_reset Failed\n"
	.size	.L.str.2, 33

	.type	.L.str.3,@object        // @.str.3
.L.str.3:
	.asciz	"\0013%s Invalid start value: %d\n"
	.size	.L.str.3, 30

	.type	.L__func__.mmc_bkops_start_stop,@object // @__func__.mmc_bkops_start_stop
.L__func__.mmc_bkops_start_stop:
	.asciz	"mmc_bkops_start_stop"
	.size	.L__func__.mmc_bkops_start_stop, 21

	.type	.L.str.4,@object        // @.str.4
.L.str.4:
	.asciz	"\0013%s: Failed to read bkops status: %d\n"
	.size	.L.str.4, 39

	.file	135 "/mnt/disk/jenkins/ci/workspace/chipset_pipeline_release/opensource/component_code/vendor/huawei/extra/build/build_script/kirin_kernel_release/kernel/include/linux/semaphore.h"