	.cpu generic+fp+simd
	.file	"hisi-blk-flush.c"
	.text
.Ltext0:
	.cfi_sections	.debug_frame
	.section	.exit.text,"ax",%progbits
	.align	2
	.type	hisi_blk_flush_exit, %function
hisi_blk_flush_exit:
.LFB2956:
	.file 1 "/mnt/disk/jslave/ci/workspace/chipset_Orlando_weekly/opensource/component_code/vendor/huawei/extra/build/build_script/kirin_kernel_release/kernel/block/hisi-blk-flush.c"
	.loc 1 136 0
	.cfi_startproc
	.loc 1 136 0
	ret
	.cfi_endproc
.LFE2956:
	.size	hisi_blk_flush_exit, .-hisi_blk_flush_exit
	.text
	.align	2
	.global	blk_mq_tagset_direct_flush_register
	.type	blk_mq_tagset_direct_flush_register, %function
blk_mq_tagset_direct_flush_register:
.LFB2959:
	.loc 1 166 0
	.cfi_startproc
.LVL0:
	.loc 1 167 0
	str	x1, [x0,72]
	.loc 1 168 0
	ret
	.cfi_endproc
.LFE2959:
	.size	blk_mq_tagset_direct_flush_register, .-blk_mq_tagset_direct_flush_register
	.align	2
	.global	blk_flush_set_async
	.type	blk_flush_set_async, %function
blk_flush_set_async:
.LFB2962:
	.loc 1 207 0
	.cfi_startproc
.LVL1:
	.loc 1 208 0
	mov	w1, 1
	strb	w1, [x0,146]
	.loc 1 209 0
	ret
	.cfi_endproc
.LFE2962:
	.size	blk_flush_set_async, .-blk_flush_set_async
	.align	2
	.global	blk_mq_tagset_flush_reduce_config
	.type	blk_mq_tagset_flush_reduce_config, %function
blk_mq_tagset_flush_reduce_config:
.LFB2964:
	.loc 1 230 0
	.cfi_startproc
.LVL2:
	.loc 1 230 0
	uxtb	w1, w1
	.loc 1 231 0
	cbnz	w1, .L8
	.loc 1 234 0
	ldr	x1, [x0,40]
.LVL3:
	and	x1, x1, -9
	str	x1, [x0,40]
	.loc 1 235 0
	ret
.LVL4:
.L8:
	.loc 1 232 0
	ldr	x1, [x0,40]
.LVL5:
	orr	x1, x1, 8
	str	x1, [x0,40]
	.loc 1 235 0
	ret
	.cfi_endproc
.LFE2964:
	.size	blk_mq_tagset_flush_reduce_config, .-blk_mq_tagset_flush_reduce_config
	.align	2
	.global	blk_flush_async_support
	.type	blk_flush_async_support, %function
blk_flush_async_support:
.LFB2965:
	.loc 1 242 0
	.cfi_startproc
.LVL6:
.LBB127:
.LBB128:
	.file 2 "/mnt/disk/jslave/ci/workspace/chipset_Orlando_weekly/opensource/component_code/vendor/huawei/extra/build/build_script/kirin_kernel_release/kernel/include/linux/blkdev.h"
	.loc 2 1264 0
	ldr	x0, [x0,168]
.LVL7:
.LBE128:
.LBE127:
	.loc 1 244 0
	ldr	x0, [x0,1024]
	.loc 1 245 0
	ldrb	w0, [x0,1160]
	ret
	.cfi_endproc
.LFE2965:
	.size	blk_flush_async_support, .-blk_flush_async_support
	.align	2
	.global	blk_queue_flush_async_support
	.type	blk_queue_flush_async_support, %function
blk_queue_flush_async_support:
.LFB2966:
	.loc 1 252 0
	.cfi_startproc
.LVL8:
	.loc 1 254 0
	ldrb	w0, [x0,1160]
.LVL9:
	ret
	.cfi_endproc
.LFE2966:
	.size	blk_queue_flush_async_support, .-blk_queue_flush_async_support
	.align	2
	.global	blk_queue_flush_reduce_config
	.type	blk_queue_flush_reduce_config, %function
blk_queue_flush_reduce_config:
.LFB2963:
	.loc 1 216 0
	.cfi_startproc
.LVL10:
	stp	x29, x30, [sp, -32]!
	.cfi_def_cfa_offset 32
	.cfi_offset 29, -32
	.cfi_offset 30, -24
	add	x29, sp, 0
	.cfi_def_cfa_register 29
	stp	x19, x20, [sp,16]
	.cfi_offset 19, -16
	.cfi_offset 20, -8
	.loc 1 216 0
	uxtb	w19, w1
.LVL11:
	mov	x20, x0
	.loc 1 217 0
	bl	hisi_blk_get_lld
.LVL12:
	.loc 1 219 0
	ldr	x2, [x0,24]
	.loc 1 218 0
	cbnz	w19, .L14
	.loc 1 221 0
	and	x2, x2, -9
	str	x2, [x0,24]
	.loc 1 222 0
	strb	w19, [x20,1160]
	.loc 1 223 0
	ldp	x19, x20, [sp,16]
	.cfi_remember_state
	.cfi_restore 20
	.cfi_restore 19
.LVL13:
	ldp	x29, x30, [sp], 32
	.cfi_restore 30
	.cfi_restore 29
	.cfi_def_cfa 31, 0
	ret
.LVL14:
.L14:
	.cfi_restore_state
	.loc 1 219 0
	orr	x2, x2, 8
	str	x2, [x0,24]
	.loc 1 222 0
	strb	w19, [x20,1160]
	.loc 1 223 0
	ldp	x19, x20, [sp,16]
	.cfi_restore 19
	.cfi_restore 20
.LVL15:
	ldp	x29, x30, [sp], 32
	.cfi_restore 29
	.cfi_restore 30
	.cfi_def_cfa 31, 0
	ret
	.cfi_endproc
.LFE2963:
	.size	blk_queue_flush_reduce_config, .-blk_queue_flush_reduce_config
	.section	.init.text,"ax",%progbits
	.align	2
	.type	hisi_blk_flush_init, %function
hisi_blk_flush_init:
.LFB2955:
	.loc 1 132 0
	.cfi_startproc
	stp	x29, x30, [sp, -16]!
	.cfi_def_cfa_offset 16
	.cfi_offset 29, -16
	.cfi_offset 30, -8
	.loc 1 133 0
	adrp	x0, .LANCHOR0
	.loc 1 132 0
	add	x29, sp, 0
	.cfi_def_cfa_register 29
	.loc 1 133 0
	add	x0, x0, :lo12:.LANCHOR0
	.loc 1 132 0
	.loc 1 133 0
	bl	hisi_powerkey_register_notifier
.LVL16:
	.loc 1 134 0
	ldp	x29, x30, [sp], 16
	.cfi_restore 30
	.cfi_restore 29
	.cfi_def_cfa 31, 0
	ret
	.cfi_endproc
.LFE2955:
	.size	hisi_blk_flush_init, .-hisi_blk_flush_init
	.text
	.align	2
	.type	blk_power_off_flush.part.4, %function
blk_power_off_flush.part.4:
.LFB2971:
	.loc 1 88 0
	.cfi_startproc
.LVL17:
	stp	x29, x30, [sp, -112]!
	.cfi_def_cfa_offset 112
	.cfi_offset 29, -112
	.cfi_offset 30, -104
	.loc 1 97 0
	mov	w2, w0
	adrp	x0, .LC0
.LVL18:
	.loc 1 88 0
	add	x29, sp, 0
	.cfi_def_cfa_register 29
	stp	x21, x22, [sp,32]
	.cfi_offset 21, -80
	.cfi_offset 22, -72
	.loc 1 97 0
	adrp	x22, .LANCHOR1
	add	x0, x0, :lo12:.LC0
	add	x21, x22, :lo12:.LANCHOR1
	mov	x1, x21
	.loc 1 88 0
	stp	x19, x20, [sp,16]
	.cfi_offset 19, -96
	.cfi_offset 20, -88
	.loc 1 99 0 discriminator 1
	adrp	x20, .LANCHOR0
	.loc 1 88 0
	stp	x23, x24, [sp,48]
	stp	x25, x26, [sp,64]
	stp	x27, x28, [sp,80]
	.cfi_offset 23, -64
	.cfi_offset 24, -56
	.cfi_offset 25, -48
	.cfi_offset 26, -40
	.cfi_offset 27, -32
	.cfi_offset 28, -24
	.loc 1 98 0
	adrp	x23, .LANCHOR2
	.loc 1 97 0
	bl	printk
.LVL19:
	.loc 1 99 0 discriminator 1
	add	x27, x20, :lo12:.LANCHOR0
	.loc 1 98 0
	mov	w1, 1
	.loc 1 99 0 discriminator 1
	add	x0, x27, 24
	.loc 1 98 0
	strb	w1, [x23,#:lo12:.LANCHOR2]
	.loc 1 99 0 discriminator 1
	bl	_raw_spin_lock_irqsave
.LVL20:
.LBB129:
	.loc 1 100 0
	ldr	x19, [x27,48]!
.LVL21:
.LBE129:
	.loc 1 99 0 discriminator 1
	mov	x25, x0
.LVL22:
	.loc 1 100 0 discriminator 1
	cmp	x19, x27
.LBB130:
	.loc 1 100 0 is_stmt 0
	sub	x19, x19, #128
.LVL23:
.LBE130:
	.loc 1 100 0 discriminator 1
	beq	.L23
	.loc 1 109 0 is_stmt 1
	adrp	x26, .LC3
	.loc 1 106 0
	adrp	x24, .LC2
	.loc 1 109 0
	add	x26, x26, :lo12:.LC3
	.loc 1 106 0
	add	x24, x24, :lo12:.LC2
	b	.L32
.LVL24:
.L19:
.LBB131:
	.loc 1 100 0 discriminator 2
	ldr	x19, [x19,128]
.LVL25:
.LBE131:
	.loc 1 100 0 is_stmt 0 discriminator 1
	cmp	x19, x27
.LBB132:
	.loc 1 100 0 discriminator 2
	sub	x19, x19, #128
.LVL26:
.LBE132:
	.loc 1 100 0 discriminator 1
	beq	.L23
.L32:
	.loc 1 101 0 is_stmt 1
	ldrb	w0, [x19,8]
.LVL27:
	cbz	w0, .L19
.LBB133:
	.loc 1 102 0
	sub	x28, x19, #1016
.LBE133:
	.loc 1 103 0
	mov	x0, x28
	bl	hisi_blk_get_lld
.LVL28:
	.loc 1 104 0
	cbz	x0, .L19
	.loc 1 104 0 is_stmt 0 discriminator 1
	ldr	x1, [x0,56]
	cbz	x1, .L19
	.loc 1 105 0 is_stmt 1
	ldr	x2, [x28,1016]
	cbnz	x2, .L39
.L21:
	.loc 1 107 0
	mov	x0, x28
.LVL29:
	blr	x1
.LVL30:
	.loc 1 108 0
	ldr	x2, [x28,1016]
	cbz	x2, .L19
	.loc 1 109 0
	mov	x0, x26
	mov	x1, x21
	add	x2, x2, 12
	bl	printk
.LVL31:
	b	.L19
.LVL32:
.L23:
.LBB134:
.LBB135:
	.file 3 "/mnt/disk/jslave/ci/workspace/chipset_Orlando_weekly/opensource/component_code/vendor/huawei/extra/build/build_script/kirin_kernel_release/kernel/include/linux/spinlock.h"
	.loc 3 362 0
	add	x0, x20, :lo12:.LANCHOR0
.LVL33:
	mov	x1, x25
	add	x0, x0, 24
	bl	_raw_spin_unlock_irqrestore
.LVL34:
.LBE135:
.LBE134:
	.loc 1 114 0
	strb	wzr, [x23,#:lo12:.LANCHOR2]
	.loc 1 115 0
	adrp	x0, .LC1
	add	x1, x22, :lo12:.LANCHOR1
	add	x0, x0, :lo12:.LC1
	bl	printk
.LVL35:
	.loc 1 116 0
	ldp	x19, x20, [sp,16]
	.cfi_remember_state
	.cfi_restore 20
	.cfi_restore 19
.LVL36:
	ldp	x21, x22, [sp,32]
	.cfi_restore 22
	.cfi_restore 21
	ldp	x23, x24, [sp,48]
	.cfi_restore 24
	.cfi_restore 23
	ldp	x25, x26, [sp,64]
	.cfi_restore 26
	.cfi_restore 25
.LVL37:
	ldp	x27, x28, [sp,80]
	.cfi_restore 28
	.cfi_restore 27
	ldp	x29, x30, [sp], 112
	.cfi_restore 30
	.cfi_restore 29
	.cfi_def_cfa 31, 0
	ret
.LVL38:
.L39:
	.cfi_restore_state
	str	x0, [x29,104]
	.loc 1 106 0
	mov	x1, x21
	add	x2, x2, 12
	mov	x0, x24
.LVL39:
	bl	printk
.LVL40:
	ldr	x3, [x29,104]
.LVL41:
	ldr	x1, [x3,56]
	b	.L21
	.cfi_endproc
.LFE2971:
	.size	blk_power_off_flush.part.4, .-blk_power_off_flush.part.4
	.align	2
	.global	blk_power_off_flush
	.type	blk_power_off_flush, %function
blk_power_off_flush:
.LFB2953:
	.loc 1 89 0
	.cfi_startproc
.LVL42:
	.loc 1 95 0
	adrp	x1, .LANCHOR2
	.loc 1 89 0
	stp	x29, x30, [sp, -16]!
	.cfi_def_cfa_offset 16
	.cfi_offset 29, -16
	.cfi_offset 30, -8
	add	x29, sp, 0
	.cfi_def_cfa_register 29
	.loc 1 95 0
	ldrb	w1, [x1,#:lo12:.LANCHOR2]
	cbz	w1, .L42
.L40:
	.loc 1 116 0
	ldp	x29, x30, [sp], 16
	.cfi_remember_state
	.cfi_restore 30
	.cfi_restore 29
	.cfi_def_cfa 31, 0
	ret
.L42:
	.cfi_restore_state
	bl	blk_power_off_flush.part.4
.LVL43:
	b	.L40
	.cfi_endproc
.LFE2953:
	.size	blk_power_off_flush, .-blk_power_off_flush
	.align	2
	.type	hisi_blk_poweroff_flush_notifier_call, %function
hisi_blk_poweroff_flush_notifier_call:
.LFB2954:
	.loc 1 120 0
	.cfi_startproc
.LVL44:
	stp	x29, x30, [sp, -16]!
	.cfi_def_cfa_offset 16
	.cfi_offset 29, -16
	.cfi_offset 30, -8
	.loc 1 121 0
	cmp	x1, 3
	.loc 1 120 0
	add	x29, sp, 0
	.cfi_def_cfa_register 29
	.loc 1 121 0
	beq	.L45
.L44:
	.loc 1 124 0
	mov	w0, 0
.LVL45:
	ldp	x29, x30, [sp], 16
	.cfi_remember_state
	.cfi_restore 30
	.cfi_restore 29
	.cfi_def_cfa 31, 0
	ret
.LVL46:
.L45:
	.cfi_restore_state
.LBB140:
.LBB141:
.LBB142:
	.loc 1 95 0
	adrp	x0, .LANCHOR2
.LVL47:
	ldrb	w0, [x0,#:lo12:.LANCHOR2]
	cbnz	w0, .L44
	mov	w0, 1
	bl	blk_power_off_flush.part.4
.LVL48:
.LBE142:
.LBE141:
.LBE140:
	.loc 1 124 0
	mov	w0, 0
	ldp	x29, x30, [sp], 16
	.cfi_restore 29
	.cfi_restore 30
	.cfi_def_cfa 31, 0
	ret
	.cfi_endproc
.LFE2954:
	.size	hisi_blk_poweroff_flush_notifier_call, .-hisi_blk_poweroff_flush_notifier_call
	.align	2
	.type	hisi_blk_flush_work_fn, %function
hisi_blk_flush_work_fn:
.LFB2950:
	.loc 1 20 0
	.cfi_startproc
.LVL49:
	stp	x29, x30, [sp, -32]!
	.cfi_def_cfa_offset 32
	.cfi_offset 29, -32
	.cfi_offset 30, -24
	.loc 1 23 0
	mov	w1, 0
	.loc 1 20 0
	add	x29, sp, 0
	.cfi_def_cfa_register 29
	str	x19, [sp,16]
	.cfi_offset 19, -16
	.loc 1 23 0
	ldr	x0, [x0,-24]
.LVL50:
	bl	bdget_disk
.LVL51:
	mov	x19, x0
.LVL52:
	.loc 1 24 0
	cbz	x0, .L46
.LBB149:
	.loc 1 25 0
	mov	w1, 2
	mov	x2, 0
	bl	blkdev_get
.LVL53:
	.loc 1 26 0
	cbnz	w0, .L56
	.loc 1 30 0
	mov	w1, 192
	mov	x0, x19
	movk	w1, 0x240, lsl 16
	mov	x2, 0
	bl	blkdev_issue_flush
.LVL54:
	.loc 1 31 0
	cbnz	w0, .L57
.L49:
	.loc 1 33 0
	mov	x0, x19
	mov	w1, 2
	bl	blkdev_put
.LVL55:
.L46:
.LBE149:
	.loc 1 35 0
	ldr	x19, [sp,16]
	.cfi_remember_state
	.cfi_restore 19
.LVL56:
	ldp	x29, x30, [sp], 32
	.cfi_restore 30
	.cfi_restore 29
	.cfi_def_cfa 31, 0
	ret
.LVL57:
.L56:
	.cfi_restore_state
.LBB150:
.LBB151:
.LBB152:
	.loc 1 27 0
	adrp	x1, .LANCHOR1
	adrp	x0, .LC4
	add	x1, x1, :lo12:.LANCHOR1
	add	x0, x0, :lo12:.LC4
	add	x1, x1, 24
	bl	printk
.LVL58:
	b	.L46
.L57:
.LBE152:
.LBE151:
.LBE150:
.LBB153:
	.loc 1 32 0
	adrp	x1, .LANCHOR1
	adrp	x0, .LC5
	add	x1, x1, :lo12:.LANCHOR1
	add	x0, x0, :lo12:.LC5
	add	x1, x1, 24
	bl	printk
.LVL59:
	b	.L49
.LBE153:
	.cfi_endproc
.LFE2950:
	.size	hisi_blk_flush_work_fn, .-hisi_blk_flush_work_fn
	.align	2
	.global	hisi_blk_flush_sync_dispatch
	.type	hisi_blk_flush_sync_dispatch, %function
hisi_blk_flush_sync_dispatch:
.LFB2951:
	.loc 1 41 0
	.cfi_startproc
.LVL60:
	stp	x29, x30, [sp, -32]!
	.cfi_def_cfa_offset 32
	.cfi_offset 29, -32
	.cfi_offset 30, -24
	add	x29, sp, 0
	.cfi_def_cfa_register 29
	.loc 1 42 0
	ldr	w3, [x1,20]
	tbnz	x3, 9, .L79
.L59:
	.loc 1 70 0
	lsr	w3, w3, 29
	.loc 1 75 0
	mov	w1, 1
.LVL61:
	.loc 1 70 0
	cmp	w3, w1
	bne	.L71
.LBB154:
.LBB155:
	.file 4 "/mnt/disk/jslave/ci/workspace/chipset_Orlando_weekly/opensource/component_code/vendor/huawei/extra/build/build_script/kirin_kernel_release/kernel/arch/arm64/include/asm/atomic_ll_sc.h"
	.loc 4 113 0
	add	x0, x0, 1140
.LVL62:
#APP
// 113 "/mnt/disk/jslave/ci/workspace/chipset_Orlando_weekly/opensource/component_code/vendor/huawei/extra/build/build_script/kirin_kernel_release/kernel/arch/arm64/include/asm/atomic_ll_sc.h" 1
	// atomic_add
	prfm	pstl1strm, [x0]
1:	ldxr	w2, [x0]
	add	w2, w2, w1
	stxr	w3, w2, [x0]
	cbnz	w3, 1b
// 0 "" 2
.LVL63:
#NO_APP
.L71:
.LBE155:
.LBE154:
	.loc 1 76 0
	mov	w0, w1
.LVL64:
	ldp	x29, x30, [sp], 32
	.cfi_remember_state
	.cfi_restore 30
	.cfi_restore 29
	.cfi_def_cfa 31, 0
	ret
.LVL65:
.L79:
	.cfi_restore_state
	.loc 1 48 0
	ldrb	w2, [x1,146]
	cmp	w2, 1
	beq	.L80
.LBB156:
.LBB157:
.LBB158:
	.file 5 "/mnt/disk/jslave/ci/workspace/chipset_Orlando_weekly/opensource/component_code/vendor/huawei/extra/build/build_script/kirin_kernel_release/kernel/include/linux/compiler.h"
	.loc 5 247 0 discriminator 4
	ldr	w2, [x0,1140]
.LBE158:
.LBE157:
.LBE156:
	.loc 1 58 0 discriminator 5
	cbnz	w2, .L59
	.loc 1 59 0
	ldr	w2, [x1,40]
	.loc 1 63 0
	mov	w1, 0
.LVL66:
	.loc 1 59 0
	cbnz	w2, .L59
	b	.L71
.LVL67:
.L80:
	.loc 1 48 0 discriminator 1
	ldr	w1, [x1,40]
.LVL68:
	cbz	w1, .L81
.LBB163:
.LBB161:
.LBB159:
	.loc 5 247 0 discriminator 4
	ldr	w1, [x0,1140]
	b	.L59
.L81:
.LBE159:
.LBE161:
.LBE163:
	.loc 1 48 0 discriminator 8
	ldrb	w1, [x0,1160]
	cbnz	w1, .L82
.LBB164:
.LBB162:
.LBB160:
	.loc 5 247 0 discriminator 4
	ldr	w1, [x0,1140]
.LBE160:
.LBE162:
.LBE164:
	.loc 1 58 0 discriminator 5
	cbnz	w1, .L59
	.loc 1 63 0
	mov	w1, 0
	b	.L71
.L82:
	.loc 1 50 0
	add	x2, x0, 1040
	str	x2, [x29,24]
	mov	x0, x2
.LVL69:
	bl	cancel_delayed_work
.LVL70:
.LBB165:
.LBB166:
	.file 6 "/mnt/disk/jslave/ci/workspace/chipset_Orlando_weekly/opensource/component_code/vendor/huawei/extra/build/build_script/kirin_kernel_release/kernel/include/linux/workqueue.h"
	.loc 6 492 0
	adrp	x1, .LANCHOR2+8
	ldr	x2, [x29,24]
	mov	w0, 8
	mov	x3, 5
	ldr	x1, [x1,#:lo12:.LANCHOR2+8]
	bl	queue_delayed_work_on
.LVL71:
.LBE166:
.LBE165:
	.loc 1 56 0
	mov	w1, 0
	b	.L71
	.cfi_endproc
.LFE2951:
	.size	hisi_blk_flush_sync_dispatch, .-hisi_blk_flush_sync_dispatch
	.align	2
	.global	hisi_blk_flush_update
	.type	hisi_blk_flush_update, %function
hisi_blk_flush_update:
.LFB2952:
	.loc 1 79 0
	.cfi_startproc
.LVL72:
	.loc 1 80 0
	cbnz	w1, .L83
.LBB167:
	.loc 1 81 0
	ldr	x0, [x0,64]
.LVL73:
.LBB168:
.LBB169:
	.loc 5 275 0
	str	wzr, [x0,1140]
.LVL74:
.L83:
.LBE169:
.LBE168:
.LBE167:
	.loc 1 82 0
	ret
	.cfi_endproc
.LFE2952:
	.size	hisi_blk_flush_update, .-hisi_blk_flush_update
	.align	2
	.global	hisi_blk_flush_reduced_queue_unregister
	.type	hisi_blk_flush_reduced_queue_unregister, %function
hisi_blk_flush_reduced_queue_unregister:
.LFB2958:
	.loc 1 151 0
	.cfi_startproc
.LVL75:
	stp	x29, x30, [sp, -32]!
	.cfi_def_cfa_offset 32
	.cfi_offset 29, -32
	.cfi_offset 30, -24
	add	x29, sp, 0
	.cfi_def_cfa_register 29
	stp	x19, x20, [sp,16]
	.cfi_offset 19, -16
	.cfi_offset 20, -8
	.loc 1 154 0 discriminator 1
	adrp	x19, .LANCHOR0
	.loc 1 151 0
	mov	x20, x0
	.loc 1 154 0 discriminator 1
	add	x0, x19, :lo12:.LANCHOR0
.LVL76:
	add	x0, x0, 24
	bl	_raw_spin_lock_irqsave
.LVL77:
	.loc 1 155 0
	ldrb	w1, [x20,1160]
	cbz	w1, .L86
	.loc 1 156 0
	ldr	x2, [x20,1144]
	.loc 1 155 0 discriminator 1
	cbz	x2, .L86
	.loc 1 157 0
	ldr	x3, [x20,1152]
	.loc 1 156 0
	cbz	x3, .L86
.LBB170:
.LBB171:
.LBB172:
.LBB173:
.LBB174:
	.file 7 "/mnt/disk/jslave/ci/workspace/chipset_Orlando_weekly/opensource/component_code/vendor/huawei/extra/build/build_script/kirin_kernel_release/kernel/include/linux/list.h"
	.loc 7 104 0
	str	x3, [x2,8]
.LBE174:
.LBE173:
.LBE172:
	.loc 7 125 0
	mov	x4, 256
.LBB180:
.LBB179:
.LBB178:
.LBB175:
.LBB176:
.LBB177:
	.loc 5 276 0
	str	x2, [x3]
.LBE177:
.LBE176:
.LBE175:
.LBE178:
.LBE179:
.LBE180:
	.loc 7 126 0
	mov	x1, 512
	.loc 7 125 0
	movk	x4, 0xdead, lsl 48
	.loc 7 126 0
	movk	x1, 0xdead, lsl 48
	.loc 7 125 0
	str	x4, [x20,1144]
	.loc 7 126 0
	str	x1, [x20,1152]
.L86:
.LBE171:
.LBE170:
.LBB181:
.LBB182:
	.loc 3 362 0
	add	x19, x19, :lo12:.LANCHOR0
.LVL78:
	mov	x1, x0
	add	x0, x19, 24
.LVL79:
	bl	_raw_spin_unlock_irqrestore
.LVL80:
.LBE182:
.LBE181:
	.loc 1 160 0
	ldp	x19, x20, [sp,16]
	.cfi_restore 20
	.cfi_restore 19
.LVL81:
	ldp	x29, x30, [sp], 32
	.cfi_restore 30
	.cfi_restore 29
	.cfi_def_cfa 31, 0
	ret
	.cfi_endproc
.LFE2958:
	.size	hisi_blk_flush_reduced_queue_unregister, .-hisi_blk_flush_reduced_queue_unregister
	.align	2
	.global	blk_queue_direct_flush_register
	.type	blk_queue_direct_flush_register, %function
blk_queue_direct_flush_register:
.LFB2960:
	.loc 1 175 0
	.cfi_startproc
.LVL82:
	stp	x29, x30, [sp, -64]!
	.cfi_def_cfa_offset 64
	.cfi_offset 29, -64
	.cfi_offset 30, -56
	add	x29, sp, 0
	.cfi_def_cfa_register 29
	stp	x19, x20, [sp,16]
	.cfi_offset 19, -48
	.cfi_offset 20, -40
	mov	x20, x0
	str	x21, [sp,32]
	.cfi_offset 21, -32
	.loc 1 175 0
	str	x1, [x29,56]
	.loc 1 176 0
	bl	hisi_blk_get_lld
.LVL83:
	.loc 1 177 0
	ldr	x1, [x29,56]
.LVL84:
	ldr	x2, [x20,1144]
	cbz	x2, .L100
.L97:
	.loc 1 179 0
	cbz	x1, .L98
.LBB201:
.LBB202:
	.loc 1 145 0 discriminator 1
	adrp	x19, .LANCHOR0
.LVL85:
.LBE202:
.LBE201:
	.loc 1 180 0
	str	x1, [x0,56]
.LBB217:
.LBB216:
	.loc 1 145 0 discriminator 1
	add	x19, x19, :lo12:.LANCHOR0
	add	x21, x19, 24
	mov	x0, x21
.LVL86:
	bl	_raw_spin_lock_irqsave
.LVL87:
	mov	x1, x0
.LVL88:
.LBB203:
.LBB204:
	.loc 7 78 0
	mov	x3, x19
.LBE204:
.LBE203:
	.loc 1 146 0
	add	x2, x20, 1144
.LBB211:
.LBB212:
	.loc 3 362 0
	mov	x0, x21
.LBE212:
.LBE211:
.LBB214:
.LBB210:
	.loc 7 78 0
	ldr	x4, [x3,48]!
.LBB205:
.LBB206:
.LBB207:
.LBB208:
.LBB209:
	.loc 5 276 0
	str	x2, [x19,48]
.LBE209:
.LBE208:
.LBE207:
	.loc 7 62 0
	str	x2, [x4,8]
	.loc 7 63 0
	str	x4, [x20,1144]
	.loc 7 64 0
	str	x3, [x20,1152]
.LBE206:
.LBE205:
.LBE210:
.LBE214:
.LBB215:
.LBB213:
	.loc 3 362 0
	bl	_raw_spin_unlock_irqrestore
.LVL89:
.LBE213:
.LBE215:
.LBE216:
.LBE217:
	.loc 1 186 0
	ldr	x21, [sp,32]
	.cfi_remember_state
	.cfi_restore 21
	ldp	x19, x20, [sp,16]
	.cfi_restore 20
	.cfi_restore 19
.LVL90:
	ldp	x29, x30, [sp], 64
	.cfi_restore 30
	.cfi_restore 29
	.cfi_def_cfa 31, 0
	ret
.LVL91:
.L98:
	.cfi_restore_state
	.loc 1 183 0
	str	xzr, [x0,56]
	.loc 1 184 0
	mov	x0, x20
.LVL92:
	bl	hisi_blk_flush_reduced_queue_unregister
.LVL93:
	.loc 1 186 0
	ldr	x21, [sp,32]
	.cfi_remember_state
	.cfi_restore 21
	ldp	x19, x20, [sp,16]
	.cfi_restore 19
	.cfi_restore 20
.LVL94:
	ldp	x29, x30, [sp], 64
	.cfi_restore 29
	.cfi_restore 30
	.cfi_def_cfa 31, 0
	ret
.LVL95:
.L100:
	.cfi_restore_state
	.loc 1 177 0 discriminator 1
	ldr	x2, [x20,1152]
	cbnz	x2, .L97
	.loc 1 178 0
	add	x2, x20, 1144
.LBB218:
.LBB219:
.LBB220:
.LBB221:
.LBB222:
	.loc 5 276 0
	str	x2, [x20,1144]
.LBE222:
.LBE221:
.LBE220:
	.loc 7 28 0
	str	x2, [x2,8]
	b	.L97
.LBE219:
.LBE218:
	.cfi_endproc
.LFE2960:
	.size	blk_queue_direct_flush_register, .-blk_queue_direct_flush_register
	.align	2
	.global	hisi_blk_queue_async_flush_init
	.type	hisi_blk_queue_async_flush_init, %function
hisi_blk_queue_async_flush_init:
.LFB2961:
	.loc 1 190 0
	.cfi_startproc
.LVL96:
	stp	x29, x30, [sp, -64]!
	.cfi_def_cfa_offset 64
	.cfi_offset 29, -64
	.cfi_offset 30, -56
	add	x29, sp, 0
	.cfi_def_cfa_register 29
	stp	x19, x20, [sp,16]
	.cfi_offset 19, -48
	.cfi_offset 20, -40
	mov	x19, x0
	str	x23, [sp,48]
	stp	x21, x22, [sp,32]
	.cfi_offset 23, -16
	.cfi_offset 21, -32
	.cfi_offset 22, -24
	.loc 1 191 0
	bl	hisi_blk_get_lld
.LVL97:
	mov	x20, x0
.LVL98:
	.loc 1 193 0
	ldr	x0, [x19,1144]
.LBB253:
.LBB254:
.LBB255:
	.loc 5 275 0
	str	wzr, [x19,1140]
.LBE255:
.LBE254:
.LBE253:
	.loc 1 193 0
	cbz	x0, .L108
.L102:
	.loc 1 195 0
	add	x0, x19, 1048
	mov	x1, 68719476704
.LBB256:
.LBB257:
.LBB258:
.LBB259:
.LBB260:
	.loc 5 276 0
	str	x0, [x19,1048]
.LBE260:
.LBE259:
.LBE258:
.LBE257:
.LBE256:
	.loc 1 195 0 discriminator 2
	mov	x2, 0
	.loc 1 195 0 is_stmt 0
	str	x1, [x19,1040]
	adrp	x1, hisi_blk_flush_work_fn
.LBB262:
.LBB261:
	.loc 7 28 0 is_stmt 1
	str	x0, [x0,8]
.LBE261:
.LBE262:
	.loc 1 195 0
	add	x1, x1, :lo12:hisi_blk_flush_work_fn
	.loc 1 195 0 is_stmt 0 discriminator 2
	add	x0, x19, 1072
	.loc 1 195 0
	str	x1, [x19,1064]
	.loc 1 195 0 discriminator 2
	mov	x3, 0
	mov	w1, 2097152
	bl	init_timer_key
.LVL99:
	.loc 1 195 0
	adrp	x0, delayed_work_timer_fn
	add	x1, x19, 1040
	add	x0, x0, :lo12:delayed_work_timer_fn
	str	x1, [x19,1104]
	str	x0, [x19,1096]
	.loc 1 196 0 is_stmt 1
	ldr	x0, [x20,56]
	cbz	x0, .L103
.LBB263:
.LBB264:
.LBB265:
.LBB266:
	.loc 5 247 0 discriminator 5
	ldr	x0, [x19,1144]
.LBE266:
.LBE265:
.LBE264:
.LBE263:
	.loc 1 196 0 discriminator 1
	add	x21, x19, 1144
	cmp	x21, x0
	beq	.L109
.L103:
	.loc 1 198 0
	ldr	x0, [x20,24]
	.loc 1 199 0
	adrp	x20, .LANCHOR2
.LVL100:
	add	x20, x20, :lo12:.LANCHOR2
	.loc 1 198 0
	ubfx	x0, x0, 3, 1
	strb	w0, [x19,1160]
	.loc 1 199 0
	ldr	x0, [x20,8]
	cbz	x0, .L110
	.loc 1 201 0
	ldp	x19, x20, [sp,16]
	.cfi_remember_state
	.cfi_restore 20
	.cfi_restore 19
.LVL101:
	ldp	x21, x22, [sp,32]
	.cfi_restore 22
	.cfi_restore 21
	ldr	x23, [sp,48]
	.cfi_restore 23
	ldp	x29, x30, [sp], 64
	.cfi_restore 30
	.cfi_restore 29
	.cfi_def_cfa 31, 0
	ret
.LVL102:
.L108:
	.cfi_restore_state
	.loc 1 193 0 discriminator 1
	ldr	x0, [x19,1152]
	cbnz	x0, .L102
	.loc 1 194 0
	add	x0, x19, 1144
.LBB267:
.LBB268:
.LBB269:
.LBB270:
.LBB271:
	.loc 5 276 0
	str	x0, [x19,1144]
.LBE271:
.LBE270:
.LBE269:
	.loc 7 28 0
	str	x0, [x0,8]
	b	.L102
.LVL103:
.L110:
.LBE268:
.LBE267:
	.loc 1 200 0
	adrp	x0, .LC6
	mov	w1, 2
	mov	w2, 0
	mov	x3, 0
	mov	x4, 0
	add	x0, x0, :lo12:.LC6
	bl	__alloc_workqueue_key
.LVL104:
	str	x0, [x20,8]
	.loc 1 201 0
	ldp	x19, x20, [sp,16]
	.cfi_remember_state
	.cfi_restore 19
	.cfi_restore 20
.LVL105:
	ldp	x21, x22, [sp,32]
	.cfi_restore 21
	.cfi_restore 22
	ldr	x23, [sp,48]
	.cfi_restore 23
	ldp	x29, x30, [sp], 64
	.cfi_restore 29
	.cfi_restore 30
	.cfi_def_cfa 31, 0
	ret
.LVL106:
.L109:
	.cfi_restore_state
.LBB272:
.LBB273:
	.loc 1 145 0 discriminator 1
	adrp	x22, .LANCHOR0
	add	x22, x22, :lo12:.LANCHOR0
	add	x23, x22, 24
	mov	x0, x23
	bl	_raw_spin_lock_irqsave
.LVL107:
	mov	x1, x0
.LVL108:
.LBB274:
.LBB275:
	.loc 7 78 0
	mov	x2, x22
.LBE275:
.LBE274:
.LBB282:
.LBB283:
	.loc 3 362 0
	mov	x0, x23
.LBE283:
.LBE282:
.LBB285:
.LBB281:
	.loc 7 78 0
	ldr	x3, [x2,48]!
.LBB276:
.LBB277:
.LBB278:
.LBB279:
.LBB280:
	.loc 5 276 0
	str	x21, [x22,48]
.LBE280:
.LBE279:
.LBE278:
	.loc 7 62 0
	str	x21, [x3,8]
	.loc 7 63 0
	str	x3, [x19,1144]
	.loc 7 64 0
	str	x2, [x19,1152]
.LBE277:
.LBE276:
.LBE281:
.LBE285:
.LBB286:
.LBB284:
	.loc 3 362 0
	bl	_raw_spin_unlock_irqrestore
.LVL109:
	b	.L103
.LBE284:
.LBE286:
.LBE273:
.LBE272:
	.cfi_endproc
.LFE2961:
	.size	hisi_blk_queue_async_flush_init, .-hisi_blk_queue_async_flush_init
	.section	.rodata
	.align	3
.LANCHOR1 = . + 0
	.type	__func__.37423, %object
	.size	__func__.37423, 20
__func__.37423:
	.string	"blk_power_off_flush"
	.zero	4
	.type	__func__.37396, %object
	.size	__func__.37396, 23
__func__.37396:
	.string	"hisi_blk_flush_work_fn"
	.section	___ksymtab_gpl+blk_power_off_flush,"a",%progbits
	.align	3
	.type	__ksymtab_blk_power_off_flush, %object
	.size	__ksymtab_blk_power_off_flush, 16
__ksymtab_blk_power_off_flush:
	.xword	blk_power_off_flush
	.xword	__kstrtab_blk_power_off_flush
	.section	___ksymtab_gpl+blk_flush_async_support,"a",%progbits
	.align	3
	.type	__ksymtab_blk_flush_async_support, %object
	.size	__ksymtab_blk_flush_async_support, 16
__ksymtab_blk_flush_async_support:
	.xword	blk_flush_async_support
	.xword	__kstrtab_blk_flush_async_support
	.section	___kcrctab_gpl+blk_power_off_flush,"a",%progbits
	.align	3
	.type	__kcrctab_blk_power_off_flush, %object
	.size	__kcrctab_blk_power_off_flush, 8
__kcrctab_blk_power_off_flush:
	.xword	__crc_blk_power_off_flush
	.section	.exitcall.exit,"aw",%progbits
	.align	3
	.type	__exitcall_hisi_blk_flush_exit, %object
	.size	__exitcall_hisi_blk_flush_exit, 8
__exitcall_hisi_blk_flush_exit:
	.xword	hisi_blk_flush_exit
	.section	___kcrctab_gpl+blk_flush_async_support,"a",%progbits
	.align	3
	.type	__kcrctab_blk_flush_async_support, %object
	.size	__kcrctab_blk_flush_async_support, 8
__kcrctab_blk_flush_async_support:
	.xword	__crc_blk_flush_async_support
	.section	.initcall6.init,"aw",%progbits
	.align	3
	.type	__initcall_hisi_blk_flush_init6, %object
	.size	__initcall_hisi_blk_flush_init6, 8
__initcall_hisi_blk_flush_init6:
	.xword	hisi_blk_flush_init
	.section	___kcrctab_gpl+blk_queue_flush_reduce_config,"a",%progbits
	.align	3
	.type	__kcrctab_blk_queue_flush_reduce_config, %object
	.size	__kcrctab_blk_queue_flush_reduce_config, 8
__kcrctab_blk_queue_flush_reduce_config:
	.xword	__crc_blk_queue_flush_reduce_config
	.section	___ksymtab_gpl+blk_queue_flush_reduce_config,"a",%progbits
	.align	3
	.type	__ksymtab_blk_queue_flush_reduce_config, %object
	.size	__ksymtab_blk_queue_flush_reduce_config, 16
__ksymtab_blk_queue_flush_reduce_config:
	.xword	blk_queue_flush_reduce_config
	.xword	__kstrtab_blk_queue_flush_reduce_config
	.section	___ksymtab_gpl+blk_queue_flush_async_support,"a",%progbits
	.align	3
	.type	__ksymtab_blk_queue_flush_async_support, %object
	.size	__ksymtab_blk_queue_flush_async_support, 16
__ksymtab_blk_queue_flush_async_support:
	.xword	blk_queue_flush_async_support
	.xword	__kstrtab_blk_queue_flush_async_support
	.data
	.align	3
.LANCHOR0 = . + 0
	.type	hisi_blk_poweroff_flush_nb, %object
	.size	hisi_blk_poweroff_flush_nb, 24
hisi_blk_poweroff_flush_nb:
	.xword	hisi_blk_poweroff_flush_notifier_call
	.zero	8
	.word	0
	.zero	4
	.type	all_flush_q_lock, %object
	.size	all_flush_q_lock, 24
all_flush_q_lock:
	.hword	0
	.hword	0
	.word	-559067475
	.word	-1
	.zero	4
	.xword	-1
	.type	all_flush_q_list, %object
	.size	all_flush_q_list, 16
all_flush_q_list:
	.xword	all_flush_q_list
	.xword	all_flush_q_list
	.section	___ksymtab_gpl+blk_flush_set_async,"a",%progbits
	.align	3
	.type	__ksymtab_blk_flush_set_async, %object
	.size	__ksymtab_blk_flush_set_async, 16
__ksymtab_blk_flush_set_async:
	.xword	blk_flush_set_async
	.xword	__kstrtab_blk_flush_set_async
	.section	___ksymtab_gpl+blk_queue_direct_flush_register,"a",%progbits
	.align	3
	.type	__ksymtab_blk_queue_direct_flush_register, %object
	.size	__ksymtab_blk_queue_direct_flush_register, 16
__ksymtab_blk_queue_direct_flush_register:
	.xword	blk_queue_direct_flush_register
	.xword	__kstrtab_blk_queue_direct_flush_register
	.section	___kcrctab_gpl+blk_queue_direct_flush_register,"a",%progbits
	.align	3
	.type	__kcrctab_blk_queue_direct_flush_register, %object
	.size	__kcrctab_blk_queue_direct_flush_register, 8
__kcrctab_blk_queue_direct_flush_register:
	.xword	__crc_blk_queue_direct_flush_register
	.section	___kcrctab_gpl+blk_flush_set_async,"a",%progbits
	.align	3
	.type	__kcrctab_blk_flush_set_async, %object
	.size	__kcrctab_blk_flush_set_async, 8
__kcrctab_blk_flush_set_async:
	.xword	__crc_blk_flush_set_async
	.section	.rodata.str1.8,"aMS",%progbits,1
	.align	3
.LC0:
	.string	"\0013[BLK-IO]<%s> emergency = %d \r\n"
	.zero	7
.LC1:
	.string	"\0013[BLK-IO]<%s> done! \r\n"
.LC2:
	.string	"\0013[BLK-IO]<%s> emergency flush on %s \r\n"
.LC3:
	.string	"\0013[BLK-IO]<%s> emergency flush on %s done!\r\n"
	.zero	3
.LC4:
	.string	"\0013[BLK-IO]<%s> blkdev_get fail! \r\n"
	.zero	5
.LC5:
	.string	"\0013[BLK-IO]<%s> blkdev_issue_flush fail! \r\n"
	.zero	5
.LC6:
	.string	"async_flush"
	.section	___ksymtab_gpl+blk_mq_tagset_flush_reduce_config,"a",%progbits
	.align	3
	.type	__ksymtab_blk_mq_tagset_flush_reduce_config, %object
	.size	__ksymtab_blk_mq_tagset_flush_reduce_config, 16
__ksymtab_blk_mq_tagset_flush_reduce_config:
	.xword	blk_mq_tagset_flush_reduce_config
	.xword	__kstrtab_blk_mq_tagset_flush_reduce_config
	.bss
	.align	3
.LANCHOR2 = . + 0
	.type	blk_power_off_flush_executing, %object
	.size	blk_power_off_flush_executing, 1
blk_power_off_flush_executing:
	.zero	1
	.zero	7
	.type	blk_async_flush_workqueue, %object
	.size	blk_async_flush_workqueue, 8
blk_async_flush_workqueue:
	.zero	8
	.section	___kcrctab_gpl+blk_mq_tagset_direct_flush_register,"a",%progbits
	.align	3
	.type	__kcrctab_blk_mq_tagset_direct_flush_register, %object
	.size	__kcrctab_blk_mq_tagset_direct_flush_register, 8
__kcrctab_blk_mq_tagset_direct_flush_register:
	.xword	__crc_blk_mq_tagset_direct_flush_register
	.section	___ksymtab_gpl+blk_mq_tagset_direct_flush_register,"a",%progbits
	.align	3
	.type	__ksymtab_blk_mq_tagset_direct_flush_register, %object
	.size	__ksymtab_blk_mq_tagset_direct_flush_register, 16
__ksymtab_blk_mq_tagset_direct_flush_register:
	.xword	blk_mq_tagset_direct_flush_register
	.xword	__kstrtab_blk_mq_tagset_direct_flush_register
	.section	___kcrctab_gpl+blk_mq_tagset_flush_reduce_config,"a",%progbits
	.align	3
	.type	__kcrctab_blk_mq_tagset_flush_reduce_config, %object
	.size	__kcrctab_blk_mq_tagset_flush_reduce_config, 8
__kcrctab_blk_mq_tagset_flush_reduce_config:
	.xword	__crc_blk_mq_tagset_flush_reduce_config
	.section	___kcrctab_gpl+blk_queue_flush_async_support,"a",%progbits
	.align	3
	.type	__kcrctab_blk_queue_flush_async_support, %object
	.size	__kcrctab_blk_queue_flush_async_support, 8
__kcrctab_blk_queue_flush_async_support:
	.xword	__crc_blk_queue_flush_async_support
	.section	__ksymtab_strings,"a",%progbits
	.type	__kstrtab_blk_queue_flush_async_support, %object
	.size	__kstrtab_blk_queue_flush_async_support, 30
__kstrtab_blk_queue_flush_async_support:
	.string	"blk_queue_flush_async_support"
	.type	__kstrtab_blk_flush_async_support, %object
	.size	__kstrtab_blk_flush_async_support, 24
__kstrtab_blk_flush_async_support:
	.string	"blk_flush_async_support"
	.type	__kstrtab_blk_mq_tagset_flush_reduce_config, %object
	.size	__kstrtab_blk_mq_tagset_flush_reduce_config, 34
__kstrtab_blk_mq_tagset_flush_reduce_config:
	.string	"blk_mq_tagset_flush_reduce_config"
	.type	__kstrtab_blk_queue_flush_reduce_config, %object
	.size	__kstrtab_blk_queue_flush_reduce_config, 30
__kstrtab_blk_queue_flush_reduce_config:
	.string	"blk_queue_flush_reduce_config"
	.type	__kstrtab_blk_flush_set_async, %object
	.size	__kstrtab_blk_flush_set_async, 20
__kstrtab_blk_flush_set_async:
	.string	"blk_flush_set_async"
	.type	__kstrtab_blk_queue_direct_flush_register, %object
	.size	__kstrtab_blk_queue_direct_flush_register, 32
__kstrtab_blk_queue_direct_flush_register:
	.string	"blk_queue_direct_flush_register"
	.type	__kstrtab_blk_mq_tagset_direct_flush_register, %object
	.size	__kstrtab_blk_mq_tagset_direct_flush_register, 36
__kstrtab_blk_mq_tagset_direct_flush_register:
	.string	"blk_mq_tagset_direct_flush_register"
	.type	__kstrtab_blk_power_off_flush, %object
	.size	__kstrtab_blk_power_off_flush, 20
__kstrtab_blk_power_off_flush:
	.string	"blk_power_off_flush"
	.weak	__crc_blk_queue_flush_async_support
	.weak	__crc_blk_mq_tagset_flush_reduce_config
	.weak	__crc_blk_mq_tagset_direct_flush_register
	.weak	__crc_blk_flush_set_async
	.weak	__crc_blk_queue_direct_flush_register
	.weak	__crc_blk_queue_flush_reduce_config
	.weak	__crc_blk_flush_async_support
	.weak	__crc_blk_power_off_flush
	.text
.Letext0:
	.file 8 "/mnt/disk/jslave/ci/workspace/chipset_Orlando_weekly/opensource/component_code/vendor/huawei/extra/build/build_script/kirin_kernel_release/kernel/include/uapi/asm-generic/int-ll64.h"
	.file 9 "/mnt/disk/jslave/ci/workspace/chipset_Orlando_weekly/opensource/component_code/vendor/huawei/extra/build/build_script/kirin_kernel_release/kernel/include/asm-generic/int-ll64.h"
	.file 10 "/mnt/disk/jslave/ci/workspace/chipset_Orlando_weekly/opensource/component_code/vendor/huawei/extra/build/build_script/kirin_kernel_release/kernel/include/uapi/asm-generic/posix_types.h"
	.file 11 "/mnt/disk/jslave/ci/workspace/chipset_Orlando_weekly/opensource/component_code/vendor/huawei/extra/build/build_script/kirin_kernel_release/kernel/include/linux/export.h"
	.file 12 "/mnt/disk/jslave/ci/workspace/chipset_Orlando_weekly/opensource/component_code/vendor/huawei/extra/build/build_script/kirin_kernel_release/kernel/include/linux/types.h"
	.file 13 "/mnt/disk/jslave/ci/workspace/chipset_Orlando_weekly/opensource/component_code/vendor/huawei/extra/build/build_script/kirin_kernel_release/kernel/include/linux/init.h"
	.file 14 "/mnt/disk/jslave/ci/workspace/chipset_Orlando_weekly/opensource/component_code/vendor/huawei/extra/build/build_script/kirin_kernel_release/kernel/include/linux/capability.h"
	.file 15 "/mnt/disk/jslave/ci/workspace/chipset_Orlando_weekly/opensource/component_code/vendor/huawei/extra/build/build_script/kirin_kernel_release/kernel/include/asm-generic/bug.h"
	.file 16 "/mnt/disk/jslave/ci/workspace/chipset_Orlando_weekly/opensource/component_code/vendor/huawei/extra/build/build_script/kirin_kernel_release/kernel/include/linux/restart_block.h"
	.file 17 "/mnt/disk/jslave/ci/workspace/chipset_Orlando_weekly/opensource/component_code/vendor/huawei/extra/build/build_script/kirin_kernel_release/kernel/include/uapi/linux/time.h"
	.file 18 "/mnt/disk/jslave/ci/workspace/chipset_Orlando_weekly/opensource/component_code/vendor/huawei/extra/build/build_script/kirin_kernel_release/kernel/arch/arm64/include/asm/compat.h"
	.file 19 "/mnt/disk/jslave/ci/workspace/chipset_Orlando_weekly/opensource/component_code/vendor/huawei/extra/build/build_script/kirin_kernel_release/kernel/include/uapi/asm-generic/poll.h"
	.file 20 "/mnt/disk/jslave/ci/workspace/chipset_Orlando_weekly/opensource/component_code/vendor/huawei/extra/build/build_script/kirin_kernel_release/kernel/arch/arm64/include/asm/thread_info.h"
	.file 21 "/mnt/disk/jslave/ci/workspace/chipset_Orlando_weekly/opensource/component_code/vendor/huawei/extra/build/build_script/kirin_kernel_release/kernel/arch/arm64/include/uapi/asm/ptrace.h"
	.file 22 "/mnt/disk/jslave/ci/workspace/chipset_Orlando_weekly/opensource/component_code/vendor/huawei/extra/build/build_script/kirin_kernel_release/kernel/arch/arm64/include/asm/spinlock_types.h"
	.file 23 "/mnt/disk/jslave/ci/workspace/chipset_Orlando_weekly/opensource/component_code/vendor/huawei/extra/build/build_script/kirin_kernel_release/kernel/include/linux/spinlock_types.h"
	.file 24 "/mnt/disk/jslave/ci/workspace/chipset_Orlando_weekly/opensource/component_code/vendor/huawei/extra/build/build_script/kirin_kernel_release/kernel/include/linux/rwlock_types.h"
	.file 25 "/mnt/disk/jslave/ci/workspace/chipset_Orlando_weekly/opensource/component_code/vendor/huawei/extra/build/build_script/kirin_kernel_release/kernel/arch/arm64/include/asm/fpsimd.h"
	.file 26 "/mnt/disk/jslave/ci/workspace/chipset_Orlando_weekly/opensource/component_code/vendor/huawei/extra/build/build_script/kirin_kernel_release/kernel/include/linux/jump_label.h"
	.file 27 "/mnt/disk/jslave/ci/workspace/chipset_Orlando_weekly/opensource/component_code/vendor/huawei/extra/build/build_script/kirin_kernel_release/kernel/include/asm-generic/atomic-long.h"
	.file 28 "/mnt/disk/jslave/ci/workspace/chipset_Orlando_weekly/opensource/component_code/vendor/huawei/extra/build/build_script/kirin_kernel_release/kernel/arch/arm64/include/asm/processor.h"
	.file 29 "/mnt/disk/jslave/ci/workspace/chipset_Orlando_weekly/opensource/component_code/vendor/huawei/extra/build/build_script/kirin_kernel_release/kernel/include/linux/seqlock.h"
	.file 30 "/mnt/disk/jslave/ci/workspace/chipset_Orlando_weekly/opensource/component_code/vendor/huawei/extra/build/build_script/kirin_kernel_release/kernel/include/linux/time64.h"
	.file 31 "/mnt/disk/jslave/ci/workspace/chipset_Orlando_weekly/opensource/component_code/vendor/huawei/extra/build/build_script/kirin_kernel_release/kernel/include/linux/plist.h"
	.file 32 "/mnt/disk/jslave/ci/workspace/chipset_Orlando_weekly/opensource/component_code/vendor/huawei/extra/build/build_script/kirin_kernel_release/kernel/include/linux/cpumask.h"
	.file 33 "/mnt/disk/jslave/ci/workspace/chipset_Orlando_weekly/opensource/component_code/vendor/huawei/extra/build/build_script/kirin_kernel_release/kernel/include/linux/wait.h"
	.file 34 "/mnt/disk/jslave/ci/workspace/chipset_Orlando_weekly/opensource/component_code/vendor/huawei/extra/build/build_script/kirin_kernel_release/kernel/include/linux/completion.h"
	.file 35 "/mnt/disk/jslave/ci/workspace/chipset_Orlando_weekly/opensource/component_code/vendor/huawei/extra/build/build_script/kirin_kernel_release/kernel/include/linux/ktime.h"
	.file 36 "/mnt/disk/jslave/ci/workspace/chipset_Orlando_weekly/opensource/component_code/vendor/huawei/extra/build/build_script/kirin_kernel_release/kernel/include/linux/rbtree.h"
	.file 37 "/mnt/disk/jslave/ci/workspace/chipset_Orlando_weekly/opensource/component_code/vendor/huawei/extra/build/build_script/kirin_kernel_release/kernel/include/linux/nodemask.h"
	.file 38 "/mnt/disk/jslave/ci/workspace/chipset_Orlando_weekly/opensource/component_code/vendor/huawei/extra/build/build_script/kirin_kernel_release/kernel/include/linux/osq_lock.h"
	.file 39 "/mnt/disk/jslave/ci/workspace/chipset_Orlando_weekly/opensource/component_code/vendor/huawei/extra/build/build_script/kirin_kernel_release/kernel/include/linux/rwsem.h"
	.file 40 "/mnt/disk/jslave/ci/workspace/chipset_Orlando_weekly/opensource/component_code/vendor/huawei/extra/build/build_script/kirin_kernel_release/kernel/include/linux/sched.h"
	.file 41 "/mnt/disk/jslave/ci/workspace/chipset_Orlando_weekly/opensource/component_code/vendor/huawei/extra/build/build_script/kirin_kernel_release/kernel/include/linux/mm_types.h"
	.file 42 "/mnt/disk/jslave/ci/workspace/chipset_Orlando_weekly/opensource/component_code/vendor/huawei/extra/build/build_script/kirin_kernel_release/kernel/include/linux/lockdep.h"
	.file 43 "/mnt/disk/jslave/ci/workspace/chipset_Orlando_weekly/opensource/component_code/vendor/huawei/extra/build/build_script/kirin_kernel_release/kernel/include/linux/uprobes.h"
	.file 44 "/mnt/disk/jslave/ci/workspace/chipset_Orlando_weekly/opensource/component_code/vendor/huawei/extra/build/build_script/kirin_kernel_release/kernel/include/linux/timer.h"
	.file 45 "/mnt/disk/jslave/ci/workspace/chipset_Orlando_weekly/opensource/component_code/vendor/huawei/extra/build/build_script/kirin_kernel_release/kernel/include/linux/uidgid.h"
	.file 46 "/mnt/disk/jslave/ci/workspace/chipset_Orlando_weekly/opensource/component_code/vendor/huawei/extra/build/build_script/kirin_kernel_release/kernel/include/linux/stddef.h"
	.file 47 "/mnt/disk/jslave/ci/workspace/chipset_Orlando_weekly/opensource/component_code/vendor/huawei/extra/build/build_script/kirin_kernel_release/kernel/arch/arm64/include/asm/pgtable-types.h"
	.file 48 "/mnt/disk/jslave/ci/workspace/chipset_Orlando_weekly/opensource/component_code/vendor/huawei/extra/build/build_script/kirin_kernel_release/kernel/arch/arm64/include/asm/page.h"
	.file 49 "/mnt/disk/jslave/ci/workspace/chipset_Orlando_weekly/opensource/component_code/vendor/huawei/extra/build/build_script/kirin_kernel_release/kernel/include/linux/pfn.h"
	.file 50 "/mnt/disk/jslave/ci/workspace/chipset_Orlando_weekly/opensource/component_code/vendor/huawei/extra/build/build_script/kirin_kernel_release/kernel/include/linux/llist.h"
	.file 51 "/mnt/disk/jslave/ci/workspace/chipset_Orlando_weekly/opensource/component_code/vendor/huawei/extra/build/build_script/kirin_kernel_release/kernel/include/linux/smp.h"
	.file 52 "/mnt/disk/jslave/ci/workspace/chipset_Orlando_weekly/opensource/component_code/vendor/huawei/extra/build/build_script/kirin_kernel_release/kernel/arch/arm64/include/asm/smp.h"
	.file 53 "/mnt/disk/jslave/ci/workspace/chipset_Orlando_weekly/opensource/component_code/vendor/huawei/extra/build/build_script/kirin_kernel_release/kernel/arch/arm64/include/asm/mmu.h"
	.file 54 "/mnt/disk/jslave/ci/workspace/chipset_Orlando_weekly/opensource/component_code/vendor/huawei/extra/build/build_script/kirin_kernel_release/kernel/include/linux/fs.h"
	.file 55 "/mnt/disk/jslave/ci/workspace/chipset_Orlando_weekly/opensource/component_code/vendor/huawei/extra/build/build_script/kirin_kernel_release/kernel/include/linux/mm.h"
	.file 56 "/mnt/disk/jslave/ci/workspace/chipset_Orlando_weekly/opensource/component_code/vendor/huawei/extra/build/build_script/kirin_kernel_release/kernel/include/asm-generic/cputime_jiffies.h"
	.file 57 "/mnt/disk/jslave/ci/workspace/chipset_Orlando_weekly/opensource/component_code/vendor/huawei/extra/build/build_script/kirin_kernel_release/kernel/include/uapi/asm-generic/signal.h"
	.file 58 "/mnt/disk/jslave/ci/workspace/chipset_Orlando_weekly/opensource/component_code/vendor/huawei/extra/build/build_script/kirin_kernel_release/kernel/include/uapi/asm-generic/signal-defs.h"
	.file 59 "/mnt/disk/jslave/ci/workspace/chipset_Orlando_weekly/opensource/component_code/vendor/huawei/extra/build/build_script/kirin_kernel_release/kernel/include/uapi/asm-generic/siginfo.h"
	.file 60 "/mnt/disk/jslave/ci/workspace/chipset_Orlando_weekly/opensource/component_code/vendor/huawei/extra/build/build_script/kirin_kernel_release/kernel/include/linux/signal.h"
	.file 61 "/mnt/disk/jslave/ci/workspace/chipset_Orlando_weekly/opensource/component_code/vendor/huawei/extra/build/build_script/kirin_kernel_release/kernel/include/linux/pid.h"
	.file 62 "/mnt/disk/jslave/ci/workspace/chipset_Orlando_weekly/opensource/component_code/vendor/huawei/extra/build/build_script/kirin_kernel_release/kernel/include/linux/mmzone.h"
	.file 63 "/mnt/disk/jslave/ci/workspace/chipset_Orlando_weekly/opensource/component_code/vendor/huawei/extra/build/build_script/kirin_kernel_release/kernel/include/linux/mutex.h"
	.file 64 "/mnt/disk/jslave/ci/workspace/chipset_Orlando_weekly/opensource/component_code/vendor/huawei/extra/build/build_script/kirin_kernel_release/kernel/include/linux/notifier.h"
	.file 65 "/mnt/disk/jslave/ci/workspace/chipset_Orlando_weekly/opensource/component_code/vendor/huawei/extra/build/build_script/kirin_kernel_release/kernel/include/linux/seccomp.h"
	.file 66 "/mnt/disk/jslave/ci/workspace/chipset_Orlando_weekly/opensource/component_code/vendor/huawei/extra/build/build_script/kirin_kernel_release/kernel/include/uapi/linux/resource.h"
	.file 67 "/mnt/disk/jslave/ci/workspace/chipset_Orlando_weekly/opensource/component_code/vendor/huawei/extra/build/build_script/kirin_kernel_release/kernel/include/linux/timerqueue.h"
	.file 68 "/mnt/disk/jslave/ci/workspace/chipset_Orlando_weekly/opensource/component_code/vendor/huawei/extra/build/build_script/kirin_kernel_release/kernel/include/linux/hrtimer.h"
	.file 69 "/mnt/disk/jslave/ci/workspace/chipset_Orlando_weekly/opensource/component_code/vendor/huawei/extra/build/build_script/kirin_kernel_release/kernel/include/linux/task_io_accounting.h"
	.file 70 "/mnt/disk/jslave/ci/workspace/chipset_Orlando_weekly/opensource/component_code/vendor/huawei/extra/build/build_script/kirin_kernel_release/kernel/include/linux/assoc_array.h"
	.file 71 "/mnt/disk/jslave/ci/workspace/chipset_Orlando_weekly/opensource/component_code/vendor/huawei/extra/build/build_script/kirin_kernel_release/kernel/include/linux/key.h"
	.file 72 "/mnt/disk/jslave/ci/workspace/chipset_Orlando_weekly/opensource/component_code/vendor/huawei/extra/build/build_script/kirin_kernel_release/kernel/include/linux/cred.h"
	.file 73 "/mnt/disk/jslave/ci/workspace/chipset_Orlando_weekly/opensource/component_code/vendor/huawei/extra/build/build_script/kirin_kernel_release/kernel/include/linux/idr.h"
	.file 74 "/mnt/disk/jslave/ci/workspace/chipset_Orlando_weekly/opensource/component_code/vendor/huawei/extra/build/build_script/kirin_kernel_release/kernel/include/linux/percpu-refcount.h"
	.file 75 "/mnt/disk/jslave/ci/workspace/chipset_Orlando_weekly/opensource/component_code/vendor/huawei/extra/build/build_script/kirin_kernel_release/kernel/include/linux/rcu_sync.h"
	.file 76 "/mnt/disk/jslave/ci/workspace/chipset_Orlando_weekly/opensource/component_code/vendor/huawei/extra/build/build_script/kirin_kernel_release/kernel/include/linux/percpu-rwsem.h"
	.file 77 "/mnt/disk/jslave/ci/workspace/chipset_Orlando_weekly/opensource/component_code/vendor/huawei/extra/build/build_script/kirin_kernel_release/kernel/include/linux/bpf-cgroup.h"
	.file 78 "/mnt/disk/jslave/ci/workspace/chipset_Orlando_weekly/opensource/component_code/vendor/huawei/extra/build/build_script/kirin_kernel_release/kernel/include/linux/cgroup-defs.h"
	.file 79 "/mnt/disk/jslave/ci/workspace/chipset_Orlando_weekly/opensource/component_code/vendor/huawei/extra/build/build_script/kirin_kernel_release/kernel/include/linux/kernfs.h"
	.file 80 "/mnt/disk/jslave/ci/workspace/chipset_Orlando_weekly/opensource/component_code/vendor/huawei/extra/build/build_script/kirin_kernel_release/kernel/include/linux/seq_file.h"
	.file 81 "/mnt/disk/jslave/ci/workspace/chipset_Orlando_weekly/opensource/component_code/vendor/huawei/extra/build/build_script/kirin_kernel_release/kernel/include/linux/bio.h"
	.file 82 "/mnt/disk/jslave/ci/workspace/chipset_Orlando_weekly/opensource/component_code/vendor/huawei/extra/build/build_script/kirin_kernel_release/kernel/include/linux/backing-dev-defs.h"
	.file 83 "/mnt/disk/jslave/ci/workspace/chipset_Orlando_weekly/opensource/component_code/vendor/huawei/extra/build/build_script/kirin_kernel_release/kernel/include/linux/iocontext.h"
	.file 84 "/mnt/disk/jslave/ci/workspace/chipset_Orlando_weekly/opensource/component_code/vendor/huawei/extra/build/build_script/kirin_kernel_release/kernel/include/linux/compat.h"
	.file 85 "/mnt/disk/jslave/ci/workspace/chipset_Orlando_weekly/opensource/component_code/vendor/huawei/extra/build/build_script/kirin_kernel_release/kernel/include/linux/stat.h"
	.file 86 "/mnt/disk/jslave/ci/workspace/chipset_Orlando_weekly/opensource/component_code/vendor/huawei/extra/build/build_script/kirin_kernel_release/kernel/include/uapi/linux/elf.h"
	.file 87 "/mnt/disk/jslave/ci/workspace/chipset_Orlando_weekly/opensource/component_code/vendor/huawei/extra/build/build_script/kirin_kernel_release/kernel/include/linux/kobject_ns.h"
	.file 88 "/mnt/disk/jslave/ci/workspace/chipset_Orlando_weekly/opensource/component_code/vendor/huawei/extra/build/build_script/kirin_kernel_release/kernel/include/linux/sysfs.h"
	.file 89 "/mnt/disk/jslave/ci/workspace/chipset_Orlando_weekly/opensource/component_code/vendor/huawei/extra/build/build_script/kirin_kernel_release/kernel/include/linux/kobject.h"
	.file 90 "/mnt/disk/jslave/ci/workspace/chipset_Orlando_weekly/opensource/component_code/vendor/huawei/extra/build/build_script/kirin_kernel_release/kernel/include/linux/kref.h"
	.file 91 "/mnt/disk/jslave/ci/workspace/chipset_Orlando_weekly/opensource/component_code/vendor/huawei/extra/build/build_script/kirin_kernel_release/kernel/include/linux/moduleparam.h"
	.file 92 "/mnt/disk/jslave/ci/workspace/chipset_Orlando_weekly/opensource/component_code/vendor/huawei/extra/build/build_script/kirin_kernel_release/kernel/include/linux/module.h"
	.file 93 "/mnt/disk/jslave/ci/workspace/chipset_Orlando_weekly/opensource/component_code/vendor/huawei/extra/build/build_script/kirin_kernel_release/kernel/include/linux/rbtree_latch.h"
	.file 94 "/mnt/disk/jslave/ci/workspace/chipset_Orlando_weekly/opensource/component_code/vendor/huawei/extra/build/build_script/kirin_kernel_release/kernel/arch/arm64/include/asm/module.h"
	.file 95 "/mnt/disk/jslave/ci/workspace/chipset_Orlando_weekly/opensource/component_code/vendor/huawei/extra/build/build_script/kirin_kernel_release/kernel/arch/arm64/include/asm/uaccess.h"
	.file 96 "/mnt/disk/jslave/ci/workspace/chipset_Orlando_weekly/opensource/component_code/vendor/huawei/extra/build/build_script/kirin_kernel_release/kernel/include/linux/tracepoint-defs.h"
	.file 97 "/mnt/disk/jslave/ci/workspace/chipset_Orlando_weekly/opensource/component_code/vendor/huawei/extra/build/build_script/kirin_kernel_release/kernel/include/linux/tracepoint.h"
	.file 98 "/mnt/disk/jslave/ci/workspace/chipset_Orlando_weekly/opensource/component_code/vendor/huawei/extra/build/build_script/kirin_kernel_release/kernel/include/linux/list_bl.h"
	.file 99 "/mnt/disk/jslave/ci/workspace/chipset_Orlando_weekly/opensource/component_code/vendor/huawei/extra/build/build_script/kirin_kernel_release/kernel/include/linux/lockref.h"
	.file 100 "/mnt/disk/jslave/ci/workspace/chipset_Orlando_weekly/opensource/component_code/vendor/huawei/extra/build/build_script/kirin_kernel_release/kernel/include/linux/dcache.h"
	.file 101 "/mnt/disk/jslave/ci/workspace/chipset_Orlando_weekly/opensource/component_code/vendor/huawei/extra/build/build_script/kirin_kernel_release/kernel/include/linux/path.h"
	.file 102 "/mnt/disk/jslave/ci/workspace/chipset_Orlando_weekly/opensource/component_code/vendor/huawei/extra/build/build_script/kirin_kernel_release/kernel/include/linux/shrinker.h"
	.file 103 "/mnt/disk/jslave/ci/workspace/chipset_Orlando_weekly/opensource/component_code/vendor/huawei/extra/build/build_script/kirin_kernel_release/kernel/include/linux/list_lru.h"
	.file 104 "/mnt/disk/jslave/ci/workspace/chipset_Orlando_weekly/opensource/component_code/vendor/huawei/extra/build/build_script/kirin_kernel_release/kernel/include/linux/radix-tree.h"
	.file 105 "/mnt/disk/jslave/ci/workspace/chipset_Orlando_weekly/opensource/component_code/vendor/huawei/extra/build/build_script/kirin_kernel_release/kernel/include/uapi/linux/fiemap.h"
	.file 106 "/mnt/disk/jslave/ci/workspace/chipset_Orlando_weekly/opensource/component_code/vendor/huawei/extra/build/build_script/kirin_kernel_release/kernel/include/linux/migrate_mode.h"
	.file 107 "/mnt/disk/jslave/ci/workspace/chipset_Orlando_weekly/opensource/component_code/vendor/huawei/extra/build/build_script/kirin_kernel_release/kernel/include/linux/bvec.h"
	.file 108 "/mnt/disk/jslave/ci/workspace/chipset_Orlando_weekly/opensource/component_code/vendor/huawei/extra/build/build_script/kirin_kernel_release/kernel/include/linux/blk_types.h"
	.file 109 "/mnt/disk/jslave/ci/workspace/chipset_Orlando_weekly/opensource/component_code/vendor/huawei/extra/build/build_script/kirin_kernel_release/kernel/include/linux/delayed_call.h"
	.file 110 "/mnt/disk/jslave/ci/workspace/chipset_Orlando_weekly/opensource/component_code/vendor/huawei/extra/build/build_script/kirin_kernel_release/kernel/include/linux/percpu_counter.h"
	.file 111 "/mnt/disk/jslave/ci/workspace/chipset_Orlando_weekly/opensource/component_code/vendor/huawei/extra/build/build_script/kirin_kernel_release/kernel/include/linux/quota.h"
	.file 112 "/mnt/disk/jslave/ci/workspace/chipset_Orlando_weekly/opensource/component_code/vendor/huawei/extra/build/build_script/kirin_kernel_release/kernel/include/linux/projid.h"
	.file 113 "/mnt/disk/jslave/ci/workspace/chipset_Orlando_weekly/opensource/component_code/vendor/huawei/extra/build/build_script/kirin_kernel_release/kernel/include/linux/uio.h"
	.file 114 "/mnt/disk/jslave/ci/workspace/chipset_Orlando_weekly/opensource/component_code/vendor/huawei/extra/build/build_script/kirin_kernel_release/kernel/include/linux/genhd.h"
	.file 115 "/mnt/disk/jslave/ci/workspace/chipset_Orlando_weekly/opensource/component_code/vendor/huawei/extra/build/build_script/kirin_kernel_release/kernel/include/linux/nfs_fs_i.h"
	.file 116 "/mnt/disk/jslave/ci/workspace/chipset_Orlando_weekly/opensource/component_code/vendor/huawei/extra/build/build_script/kirin_kernel_release/kernel/include/linux/poll.h"
	.file 117 "/mnt/disk/jslave/ci/workspace/chipset_Orlando_weekly/opensource/component_code/vendor/huawei/extra/build/build_script/kirin_kernel_release/kernel/include/linux/vmstat.h"
	.file 118 "/mnt/disk/jslave/ci/workspace/chipset_Orlando_weekly/opensource/component_code/vendor/huawei/extra/build/build_script/kirin_kernel_release/kernel/include/linux/mempool.h"
	.file 119 "/mnt/disk/jslave/ci/workspace/chipset_Orlando_weekly/opensource/component_code/vendor/huawei/extra/build/build_script/kirin_kernel_release/kernel/include/linux/klist.h"
	.file 120 "/mnt/disk/jslave/ci/workspace/chipset_Orlando_weekly/opensource/component_code/vendor/huawei/extra/build/build_script/kirin_kernel_release/kernel/include/linux/pinctrl/devinfo.h"
	.file 121 "/mnt/disk/jslave/ci/workspace/chipset_Orlando_weekly/opensource/component_code/vendor/huawei/extra/build/build_script/kirin_kernel_release/kernel/include/linux/pm.h"
	.file 122 "/mnt/disk/jslave/ci/workspace/chipset_Orlando_weekly/opensource/component_code/vendor/huawei/extra/build/build_script/kirin_kernel_release/kernel/include/linux/device.h"
	.file 123 "/mnt/disk/jslave/ci/workspace/chipset_Orlando_weekly/opensource/component_code/vendor/huawei/extra/build/build_script/kirin_kernel_release/kernel/include/linux/pm_wakeup.h"
	.file 124 "/mnt/disk/jslave/ci/workspace/chipset_Orlando_weekly/opensource/component_code/vendor/huawei/extra/build/build_script/kirin_kernel_release/kernel/arch/arm64/include/asm/device.h"
	.file 125 "/mnt/disk/jslave/ci/workspace/chipset_Orlando_weekly/opensource/component_code/vendor/huawei/extra/build/build_script/kirin_kernel_release/kernel/include/linux/flex_proportions.h"
	.file 126 "/mnt/disk/jslave/ci/workspace/chipset_Orlando_weekly/opensource/component_code/vendor/huawei/extra/build/build_script/kirin_kernel_release/kernel/include/linux/bsg.h"
	.file 127 "/mnt/disk/jslave/ci/workspace/chipset_Orlando_weekly/opensource/component_code/vendor/huawei/extra/build/build_script/kirin_kernel_release/kernel/include/linux/wbt.h"
	.file 128 "/mnt/disk/jslave/ci/workspace/chipset_Orlando_weekly/opensource/component_code/vendor/huawei/extra/build/build_script/kirin_kernel_release/kernel/block/blk-mq.h"
	.file 129 "/mnt/disk/jslave/ci/workspace/chipset_Orlando_weekly/opensource/component_code/vendor/huawei/extra/build/build_script/kirin_kernel_release/kernel/include/linux/elevator.h"
	.file 130 "/mnt/disk/jslave/ci/workspace/chipset_Orlando_weekly/opensource/component_code/vendor/huawei/extra/build/build_script/kirin_kernel_release/kernel/include/linux/blk-mq.h"
	.file 131 "/mnt/disk/jslave/ci/workspace/chipset_Orlando_weekly/opensource/component_code/vendor/huawei/extra/build/build_script/kirin_kernel_release/kernel/block/hisi-blk.h"
	.file 132 "/mnt/disk/jslave/ci/workspace/chipset_Orlando_weekly/opensource/component_code/vendor/huawei/extra/build/build_script/kirin_kernel_release/kernel/block/blk.h"
	.file 133 "/mnt/disk/jslave/ci/workspace/chipset_Orlando_weekly/opensource/component_code/vendor/huawei/extra/build/build_script/kirin_kernel_release/kernel/include/linux/sbitmap.h"
	.file 134 "/mnt/disk/jslave/ci/workspace/chipset_Orlando_weekly/opensource/component_code/vendor/huawei/extra/build/build_script/kirin_kernel_release/kernel/include/uapi/linux/uio.h"
	.file 135 "/mnt/disk/jslave/ci/workspace/chipset_Orlando_weekly/opensource/component_code/vendor/huawei/extra/build/build_script/kirin_kernel_release/kernel/include/linux/hisi/hisi_powerkey_event.h"
	.file 136 "/mnt/disk/jslave/ci/workspace/chipset_Orlando_weekly/opensource/component_code/vendor/huawei/extra/build/build_script/kirin_kernel_release/kernel/include/linux/jiffies.h"
	.file 137 "/mnt/disk/jslave/ci/workspace/chipset_Orlando_weekly/opensource/component_code/vendor/huawei/extra/build/build_script/kirin_kernel_release/kernel/arch/arm64/include/asm/cachetype.h"
	.file 138 "/mnt/disk/jslave/ci/workspace/chipset_Orlando_weekly/opensource/component_code/vendor/huawei/extra/build/build_script/kirin_kernel_release/kernel/include/linux/printk.h"
	.file 139 "/mnt/disk/jslave/ci/workspace/chipset_Orlando_weekly/opensource/component_code/vendor/huawei/extra/build/build_script/kirin_kernel_release/kernel/include/linux/kernel.h"
	.file 140 "/mnt/disk/jslave/ci/workspace/chipset_Orlando_weekly/opensource/component_code/vendor/huawei/extra/build/build_script/kirin_kernel_release/kernel/arch/arm64/include/asm/stack_pointer.h"
	.file 141 "/mnt/disk/jslave/ci/workspace/chipset_Orlando_weekly/opensource/component_code/vendor/huawei/extra/build/build_script/kirin_kernel_release/kernel/arch/arm64/include/asm/hwcap.h"
	.file 142 "/mnt/disk/jslave/ci/workspace/chipset_Orlando_weekly/opensource/component_code/vendor/huawei/extra/build/build_script/kirin_kernel_release/kernel/arch/arm64/include/asm/cpufeature.h"
	.file 143 "/mnt/disk/jslave/ci/workspace/chipset_Orlando_weekly/opensource/component_code/vendor/huawei/extra/build/build_script/kirin_kernel_release/kernel/arch/arm64/include/asm/virt.h"
	.file 144 "/mnt/disk/jslave/ci/workspace/chipset_Orlando_weekly/opensource/component_code/vendor/huawei/extra/build/build_script/kirin_kernel_release/kernel/include/linux/highuid.h"
	.file 145 "/mnt/disk/jslave/ci/workspace/chipset_Orlando_weekly/opensource/component_code/vendor/huawei/extra/build/build_script/kirin_kernel_release/kernel/arch/arm64/include/asm/memory.h"
	.file 146 "/mnt/disk/jslave/ci/workspace/chipset_Orlando_weekly/opensource/component_code/vendor/huawei/extra/build/build_script/kirin_kernel_release/kernel/include/asm-generic/percpu.h"
	.file 147 "/mnt/disk/jslave/ci/workspace/chipset_Orlando_weekly/opensource/component_code/vendor/huawei/extra/build/build_script/kirin_kernel_release/kernel/include/linux/debug_locks.h"
	.file 148 "/mnt/disk/jslave/ci/workspace/chipset_Orlando_weekly/opensource/component_code/vendor/huawei/extra/build/build_script/kirin_kernel_release/kernel/include/asm-generic/pgtable.h"
	.file 149 "/mnt/disk/jslave/ci/workspace/chipset_Orlando_weekly/opensource/component_code/vendor/huawei/extra/build/build_script/kirin_kernel_release/kernel/arch/arm64/include/asm/irq.h"
	.file 150 "/mnt/disk/jslave/ci/workspace/chipset_Orlando_weekly/opensource/component_code/vendor/huawei/extra/build/build_script/kirin_kernel_release/kernel/arch/arm64/include/asm/hardirq.h"
	.file 151 "/mnt/disk/jslave/ci/workspace/chipset_Orlando_weekly/opensource/component_code/vendor/huawei/extra/build/build_script/kirin_kernel_release/kernel/include/linux/slab.h"
	.file 152 "/mnt/disk/jslave/ci/workspace/chipset_Orlando_weekly/opensource/component_code/vendor/huawei/extra/build/build_script/kirin_kernel_release/kernel/include/trace/events/block.h"
	.file 153 "/mnt/disk/jslave/ci/workspace/chipset_Orlando_weekly/opensource/component_code/vendor/huawei/extra/build/build_script/kirin_kernel_release/kernel/include/linux/spinlock_api_smp.h"
	.section	.note.GNU-stack,"",%progbits
