	.text
	.file	"mas_blk_busy_idle_notify.c"
	.file	1 "/mnt/disk/jenkins/ci/workspace/chipset_pipeline_release/opensource/component_code/vendor/huawei/extra/build/build_script/kirin_kernel_release/kernel/include/linux/lockdep.h"
	.file	2 "/mnt/disk/jenkins/ci/workspace/chipset_pipeline_release/opensource/component_code/vendor/huawei/extra/build/build_script/kirin_kernel_release/kernel/block/mas_blk_busy_idle_notify.c"
	.file	3 "/mnt/disk/jenkins/ci/workspace/chipset_pipeline_release/opensource/component_code/vendor/huawei/extra/build/build_script/kirin_kernel_release/kernel/include/linux/blkdev.h"
	.file	4 "/mnt/disk/jenkins/ci/workspace/chipset_pipeline_release/opensource/component_code/vendor/huawei/extra/build/build_script/kirin_kernel_release/kernel/include/linux/kobject_ns.h"
	.file	5 "/mnt/disk/jenkins/ci/workspace/chipset_pipeline_release/opensource/component_code/vendor/huawei/extra/build/build_script/kirin_kernel_release/kernel/include/linux/hrtimer.h"
	.file	6 "/mnt/disk/jenkins/ci/workspace/chipset_pipeline_release/opensource/component_code/vendor/huawei/extra/build/build_script/kirin_kernel_release/kernel/include/linux/module.h"
	.file	7 "/mnt/disk/jenkins/ci/workspace/chipset_pipeline_release/opensource/component_code/vendor/huawei/extra/build/build_script/kirin_kernel_release/kernel/include/linux/quota.h"
	.file	8 "/mnt/disk/jenkins/ci/workspace/chipset_pipeline_release/opensource/component_code/vendor/huawei/extra/build/build_script/kirin_kernel_release/kernel/include/linux/fs.h"
	.file	9 "/mnt/disk/jenkins/ci/workspace/chipset_pipeline_release/opensource/component_code/vendor/huawei/extra/build/build_script/kirin_kernel_release/kernel/include/linux/pid.h"
	.file	10 "/mnt/disk/jenkins/ci/workspace/chipset_pipeline_release/opensource/component_code/vendor/huawei/extra/build/build_script/kirin_kernel_release/kernel/include/linux/device.h"
	.file	11 "/mnt/disk/jenkins/ci/workspace/chipset_pipeline_release/opensource/component_code/vendor/huawei/extra/build/build_script/kirin_kernel_release/kernel/include/linux/pm.h"
	.file	12 "/mnt/disk/jenkins/ci/workspace/chipset_pipeline_release/opensource/component_code/vendor/huawei/extra/build/build_script/kirin_kernel_release/kernel/include/linux/rcu_sync.h"
	.file	13 "/mnt/disk/jenkins/ci/workspace/chipset_pipeline_release/opensource/component_code/vendor/huawei/extra/build/build_script/kirin_kernel_release/kernel/include/linux/migrate_mode.h"
	.file	14 "/mnt/disk/jenkins/ci/workspace/chipset_pipeline_release/opensource/component_code/vendor/huawei/extra/build/build_script/kirin_kernel_release/kernel/include/linux/memremap.h"
	.file	15 "/mnt/disk/jenkins/ci/workspace/chipset_pipeline_release/opensource/component_code/vendor/huawei/extra/build/build_script/kirin_kernel_release/kernel/include/linux/mm.h"
	.file	16 "/mnt/disk/jenkins/ci/workspace/chipset_pipeline_release/opensource/component_code/vendor/huawei/extra/build/build_script/kirin_kernel_release/kernel/include/linux/restart_block.h"
	.file	17 "/mnt/disk/jenkins/ci/workspace/chipset_pipeline_release/opensource/component_code/vendor/huawei/extra/build/build_script/kirin_kernel_release/kernel/include/linux/elevator.h"
	.file	18 "/mnt/disk/jenkins/ci/workspace/chipset_pipeline_release/opensource/component_code/vendor/huawei/extra/build/build_script/kirin_kernel_release/kernel/block/mas_blk.h"
	.file	19 "/mnt/disk/jenkins/ci/workspace/chipset_pipeline_release/opensource/component_code/vendor/huawei/extra/build/build_script/kirin_kernel_release/kernel/include/linux/stddef.h"
	.file	20 "/mnt/disk/jenkins/ci/workspace/chipset_pipeline_release/opensource/component_code/vendor/huawei/extra/build/build_script/kirin_kernel_release/kernel/include/linux/workqueue.h"
	.file	21 "/mnt/disk/jenkins/ci/workspace/chipset_pipeline_release/opensource/component_code/vendor/huawei/extra/build/build_script/kirin_kernel_release/kernel/include/linux/slab.h"
	.file	22 "/mnt/disk/jenkins/ci/workspace/chipset_pipeline_release/opensource/component_code/vendor/huawei/extra/build/build_script/kirin_kernel_release/kernel/include/linux/types.h"
	.file	23 "/mnt/disk/jenkins/ci/workspace/chipset_pipeline_release/opensource/component_code/vendor/huawei/extra/build/build_script/kirin_kernel_release/kernel/block/mas_blk_busy_idle_notify.h"
	.file	24 "/mnt/disk/jenkins/ci/workspace/chipset_pipeline_release/opensource/component_code/vendor/huawei/extra/build/build_script/kirin_kernel_release/kernel/include/linux/timer.h"
	.file	25 "/mnt/disk/jenkins/ci/workspace/chipset_pipeline_release/opensource/component_code/vendor/huawei/extra/build/build_script/kirin_kernel_release/kernel/include/asm-generic/int-ll64.h"
	.file	26 "/mnt/disk/jenkins/ci/workspace/chipset_pipeline_release/opensource/component_code/vendor/huawei/extra/build/build_script/kirin_kernel_release/kernel/include/linux/notifier.h"
	.file	27 "/mnt/disk/jenkins/ci/workspace/chipset_pipeline_release/opensource/component_code/vendor/huawei/extra/build/build_script/kirin_kernel_release/kernel/include/linux/llist.h"
	.file	28 "/mnt/disk/jenkins/ci/workspace/chipset_pipeline_release/opensource/component_code/vendor/huawei/extra/build/build_script/kirin_kernel_release/kernel/include/linux/smp.h"
	.file	29 "/mnt/disk/jenkins/ci/workspace/chipset_pipeline_release/opensource/component_code/vendor/huawei/extra/build/build_script/kirin_kernel_release/kernel/arch/arm64/include/asm/spinlock_types.h"
	.file	30 "/mnt/disk/jenkins/ci/workspace/chipset_pipeline_release/opensource/component_code/vendor/huawei/extra/build/build_script/kirin_kernel_release/kernel/include/linux/spinlock_types.h"
	.file	31 "/mnt/disk/jenkins/ci/workspace/chipset_pipeline_release/opensource/component_code/vendor/huawei/extra/build/build_script/kirin_kernel_release/kernel/block/blk-mq.h"
	.file	32 "/mnt/disk/jenkins/ci/workspace/chipset_pipeline_release/opensource/component_code/vendor/huawei/extra/build/build_script/kirin_kernel_release/kernel/include/linux/kobject.h"
	.file	33 "/mnt/disk/jenkins/ci/workspace/chipset_pipeline_release/opensource/component_code/vendor/huawei/extra/build/build_script/kirin_kernel_release/kernel/include/uapi/asm-generic/posix_types.h"
	.file	34 "/mnt/disk/jenkins/ci/workspace/chipset_pipeline_release/opensource/component_code/vendor/huawei/extra/build/build_script/kirin_kernel_release/kernel/include/linux/sysfs.h"
	.file	35 "/mnt/disk/jenkins/ci/workspace/chipset_pipeline_release/opensource/component_code/vendor/huawei/extra/build/build_script/kirin_kernel_release/kernel/include/linux/kernfs.h"
	.file	36 "/mnt/disk/jenkins/ci/workspace/chipset_pipeline_release/opensource/component_code/vendor/huawei/extra/build/build_script/kirin_kernel_release/kernel/include/linux/rbtree.h"
	.file	37 "/mnt/disk/jenkins/ci/workspace/chipset_pipeline_release/opensource/component_code/vendor/huawei/extra/build/build_script/kirin_kernel_release/kernel/include/linux/radix-tree.h"
	.file	38 "/mnt/disk/jenkins/ci/workspace/chipset_pipeline_release/opensource/component_code/vendor/huawei/extra/build/build_script/kirin_kernel_release/kernel/include/linux/idr.h"
	.file	39 "/mnt/disk/jenkins/ci/workspace/chipset_pipeline_release/opensource/component_code/vendor/huawei/extra/build/build_script/kirin_kernel_release/kernel/include/linux/seq_file.h"
	.file	40 "/mnt/disk/jenkins/ci/workspace/chipset_pipeline_release/opensource/component_code/vendor/huawei/extra/build/build_script/kirin_kernel_release/kernel/include/asm-generic/atomic-long.h"
	.file	41 "/mnt/disk/jenkins/ci/workspace/chipset_pipeline_release/opensource/component_code/vendor/huawei/extra/build/build_script/kirin_kernel_release/kernel/include/linux/mutex.h"
	.file	42 "/mnt/disk/jenkins/ci/workspace/chipset_pipeline_release/opensource/component_code/vendor/huawei/extra/build/build_script/kirin_kernel_release/kernel/include/linux/osq_lock.h"
	.file	43 "/mnt/disk/jenkins/ci/workspace/chipset_pipeline_release/opensource/component_code/vendor/huawei/extra/build/build_script/kirin_kernel_release/kernel/arch/arm64/include/asm/thread_info.h"
	.file	44 "/mnt/disk/jenkins/ci/workspace/chipset_pipeline_release/opensource/component_code/vendor/huawei/extra/build/build_script/kirin_kernel_release/kernel/include/linux/sched.h"
	.file	45 "/mnt/disk/jenkins/ci/workspace/chipset_pipeline_release/opensource/component_code/vendor/huawei/extra/build/build_script/kirin_kernel_release/kernel/include/linux/cpumask.h"
	.file	46 "/mnt/disk/jenkins/ci/workspace/chipset_pipeline_release/opensource/component_code/vendor/huawei/extra/build/build_script/kirin_kernel_release/kernel/include/linux/timerqueue.h"
	.file	47 "/mnt/disk/jenkins/ci/workspace/chipset_pipeline_release/opensource/component_code/vendor/huawei/extra/build/build_script/kirin_kernel_release/kernel/include/linux/ktime.h"
	.file	48 "/mnt/disk/jenkins/ci/workspace/chipset_pipeline_release/opensource/component_code/vendor/huawei/extra/build/build_script/kirin_kernel_release/kernel/include/linux/seqlock.h"
	.file	49 "/mnt/disk/jenkins/ci/workspace/chipset_pipeline_release/opensource/component_code/vendor/huawei/extra/build/build_script/kirin_kernel_release/kernel/include/linux/plist.h"
	.file	50 "/mnt/disk/jenkins/ci/workspace/chipset_pipeline_release/opensource/component_code/vendor/huawei/extra/build/build_script/kirin_kernel_release/kernel/include/linux/mm_types.h"
	.file	51 "/mnt/disk/jenkins/ci/workspace/chipset_pipeline_release/opensource/component_code/vendor/huawei/extra/build/build_script/kirin_kernel_release/kernel/arch/arm64/include/asm/pgtable-types.h"
	.file	52 "/mnt/disk/jenkins/ci/workspace/chipset_pipeline_release/opensource/component_code/vendor/huawei/extra/build/build_script/kirin_kernel_release/kernel/include/asm-generic/pgtable-nop4d-hack.h"
	.file	53 "/mnt/disk/jenkins/ci/workspace/chipset_pipeline_release/opensource/component_code/vendor/huawei/extra/build/build_script/kirin_kernel_release/kernel/include/linux/uidgid.h"
	.file	54 "/mnt/disk/jenkins/ci/workspace/chipset_pipeline_release/opensource/component_code/vendor/huawei/extra/build/build_script/kirin_kernel_release/kernel/include/linux/dcache.h"
	.file	55 "/mnt/disk/jenkins/ci/workspace/chipset_pipeline_release/opensource/component_code/vendor/huawei/extra/build/build_script/kirin_kernel_release/kernel/include/linux/list_bl.h"
	.file	56 "/mnt/disk/jenkins/ci/workspace/chipset_pipeline_release/opensource/component_code/vendor/huawei/extra/build/build_script/kirin_kernel_release/kernel/include/linux/lockref.h"
	.file	57 "/mnt/disk/jenkins/ci/workspace/chipset_pipeline_release/opensource/component_code/vendor/huawei/extra/build/build_script/kirin_kernel_release/kernel/include/linux/path.h"
	.file	58 "/mnt/disk/jenkins/ci/workspace/chipset_pipeline_release/opensource/component_code/vendor/huawei/extra/build/build_script/kirin_kernel_release/kernel/include/uapi/asm-generic/int-ll64.h"
	.file	59 "/mnt/disk/jenkins/ci/workspace/chipset_pipeline_release/opensource/component_code/vendor/huawei/extra/build/build_script/kirin_kernel_release/kernel/include/linux/completion.h"
	.file	60 "/mnt/disk/jenkins/ci/workspace/chipset_pipeline_release/opensource/component_code/vendor/huawei/extra/build/build_script/kirin_kernel_release/kernel/include/linux/wait.h"
	.file	61 "/mnt/disk/jenkins/ci/workspace/chipset_pipeline_release/opensource/component_code/vendor/huawei/extra/build/build_script/kirin_kernel_release/kernel/include/linux/export.h"
	.file	62 "/mnt/disk/jenkins/ci/workspace/chipset_pipeline_release/opensource/component_code/vendor/huawei/extra/build/build_script/kirin_kernel_release/kernel/include/linux/cfi.h"
	.file	63 "/mnt/disk/jenkins/ci/workspace/chipset_pipeline_release/opensource/component_code/vendor/huawei/extra/build/build_script/kirin_kernel_release/kernel/include/linux/moduleparam.h"
	.file	64 "/mnt/disk/jenkins/ci/workspace/chipset_pipeline_release/opensource/component_code/vendor/huawei/extra/build/build_script/kirin_kernel_release/kernel/arch/arm64/include/asm/extable.h"
	.file	65 "/mnt/disk/jenkins/ci/workspace/chipset_pipeline_release/opensource/component_code/vendor/huawei/extra/build/build_script/kirin_kernel_release/kernel/include/linux/rbtree_latch.h"
	.file	66 "/mnt/disk/jenkins/ci/workspace/chipset_pipeline_release/opensource/component_code/vendor/huawei/extra/build/build_script/kirin_kernel_release/kernel/include/uapi/linux/elf.h"
	.file	67 "/mnt/disk/jenkins/ci/workspace/chipset_pipeline_release/opensource/component_code/vendor/huawei/extra/build/build_script/kirin_kernel_release/kernel/arch/arm64/include/asm/module.h"
	.file	68 "/mnt/disk/jenkins/ci/workspace/chipset_pipeline_release/opensource/component_code/vendor/huawei/extra/build/build_script/kirin_kernel_release/kernel/include/uapi/linux/types.h"
	.file	69 "/mnt/disk/jenkins/ci/workspace/chipset_pipeline_release/opensource/component_code/vendor/huawei/extra/build/build_script/kirin_kernel_release/kernel/include/asm-generic/bug.h"
	.file	70 "/mnt/disk/jenkins/ci/workspace/chipset_pipeline_release/opensource/component_code/vendor/huawei/extra/build/build_script/kirin_kernel_release/kernel/include/linux/tracepoint-defs.h"
	.file	71 "/mnt/disk/jenkins/ci/workspace/chipset_pipeline_release/opensource/component_code/vendor/huawei/extra/build/build_script/kirin_kernel_release/kernel/include/linux/jump_label.h"
	.file	72 "/mnt/disk/jenkins/ci/workspace/chipset_pipeline_release/opensource/component_code/vendor/huawei/extra/build/build_script/kirin_kernel_release/kernel/include/linux/tracepoint.h"
	.file	73 "/mnt/disk/jenkins/ci/workspace/chipset_pipeline_release/opensource/component_code/vendor/huawei/extra/build/build_script/kirin_kernel_release/kernel/include/linux/projid.h"
	.file	74 "/mnt/disk/jenkins/ci/workspace/chipset_pipeline_release/opensource/component_code/vendor/huawei/extra/build/build_script/kirin_kernel_release/kernel/include/linux/time64.h"
	.file	75 "/mnt/disk/jenkins/ci/workspace/chipset_pipeline_release/opensource/component_code/vendor/huawei/extra/build/build_script/kirin_kernel_release/kernel/include/linux/shrinker.h"
	.file	76 "/mnt/disk/jenkins/ci/workspace/chipset_pipeline_release/opensource/component_code/vendor/huawei/extra/build/build_script/kirin_kernel_release/kernel/include/linux/rwsem.h"
	.file	77 "/mnt/disk/jenkins/ci/workspace/chipset_pipeline_release/opensource/component_code/vendor/huawei/extra/build/build_script/kirin_kernel_release/kernel/include/linux/genhd.h"
	.file	78 "/mnt/disk/jenkins/ci/workspace/chipset_pipeline_release/opensource/component_code/vendor/huawei/extra/build/build_script/kirin_kernel_release/kernel/include/linux/uio.h"
	.file	79 "/mnt/disk/jenkins/ci/workspace/chipset_pipeline_release/opensource/component_code/vendor/huawei/extra/build/build_script/kirin_kernel_release/kernel/include/uapi/linux/uio.h"
	.file	80 "/mnt/disk/jenkins/ci/workspace/chipset_pipeline_release/opensource/component_code/vendor/huawei/extra/build/build_script/kirin_kernel_release/kernel/include/linux/bvec.h"
	.file	81 "/mnt/disk/jenkins/ci/workspace/chipset_pipeline_release/opensource/component_code/vendor/huawei/extra/build/build_script/kirin_kernel_release/kernel/include/linux/poll.h"
	.file	82 "/mnt/disk/jenkins/ci/workspace/chipset_pipeline_release/opensource/component_code/vendor/huawei/extra/build/build_script/kirin_kernel_release/kernel/include/linux/nfs_fs_i.h"
	.file	83 "/mnt/disk/jenkins/ci/workspace/chipset_pipeline_release/opensource/component_code/vendor/huawei/extra/build/build_script/kirin_kernel_release/kernel/include/linux/rwlock_types.h"
	.file	84 "/mnt/disk/jenkins/ci/workspace/chipset_pipeline_release/opensource/component_code/vendor/huawei/extra/build/build_script/kirin_kernel_release/kernel/include/linux/cred.h"
	.file	85 "/mnt/disk/jenkins/ci/workspace/chipset_pipeline_release/opensource/component_code/vendor/huawei/extra/build/build_script/kirin_kernel_release/kernel/include/linux/capability.h"
	.file	86 "/mnt/disk/jenkins/ci/workspace/chipset_pipeline_release/opensource/component_code/vendor/huawei/extra/build/build_script/kirin_kernel_release/kernel/include/linux/refcount.h"
	.file	87 "/mnt/disk/jenkins/ci/workspace/chipset_pipeline_release/opensource/component_code/vendor/huawei/extra/build/build_script/kirin_kernel_release/kernel/include/linux/key.h"
	.file	88 "/mnt/disk/jenkins/ci/workspace/chipset_pipeline_release/opensource/component_code/vendor/huawei/extra/build/build_script/kirin_kernel_release/kernel/include/linux/assoc_array.h"
	.file	89 "/mnt/disk/jenkins/ci/workspace/chipset_pipeline_release/opensource/component_code/vendor/huawei/extra/build/build_script/kirin_kernel_release/kernel/include/linux/sched/user.h"
	.file	90 "/mnt/disk/jenkins/ci/workspace/chipset_pipeline_release/opensource/component_code/vendor/huawei/extra/build/build_script/kirin_kernel_release/kernel/include/linux/errseq.h"
	.file	91 "/mnt/disk/jenkins/ci/workspace/chipset_pipeline_release/opensource/component_code/vendor/huawei/extra/build/build_script/kirin_kernel_release/kernel/include/linux/pm_wakeup.h"
	.file	92 "/mnt/disk/jenkins/ci/workspace/chipset_pipeline_release/opensource/component_code/vendor/huawei/extra/build/build_script/kirin_kernel_release/kernel/include/linux/pinctrl/devinfo.h"
	.file	93 "/mnt/disk/jenkins/ci/workspace/chipset_pipeline_release/opensource/component_code/vendor/huawei/extra/build/build_script/kirin_kernel_release/kernel/arch/arm64/include/asm/device.h"
	.file	94 "/mnt/disk/jenkins/ci/workspace/chipset_pipeline_release/opensource/component_code/vendor/huawei/extra/build/build_script/kirin_kernel_release/kernel/include/linux/klist.h"
	.file	95 "/mnt/disk/jenkins/ci/workspace/chipset_pipeline_release/opensource/component_code/vendor/huawei/extra/build/build_script/kirin_kernel_release/kernel/include/linux/kref.h"
	.file	96 "/mnt/disk/jenkins/ci/workspace/chipset_pipeline_release/opensource/component_code/vendor/huawei/extra/build/build_script/kirin_kernel_release/kernel/include/linux/percpu-refcount.h"
	.file	97 "/mnt/disk/jenkins/ci/workspace/chipset_pipeline_release/opensource/component_code/vendor/huawei/extra/build/build_script/kirin_kernel_release/kernel/include/linux/backing-dev-defs.h"
	.file	98 "/mnt/disk/jenkins/ci/workspace/chipset_pipeline_release/opensource/component_code/vendor/huawei/extra/build/build_script/kirin_kernel_release/kernel/include/linux/percpu_counter.h"
	.file	99 "/mnt/disk/jenkins/ci/workspace/chipset_pipeline_release/opensource/component_code/vendor/huawei/extra/build/build_script/kirin_kernel_release/kernel/include/linux/flex_proportions.h"
	.file	100 "/mnt/disk/jenkins/ci/workspace/chipset_pipeline_release/opensource/component_code/vendor/huawei/extra/build/build_script/kirin_kernel_release/kernel/include/linux/percpu-rwsem.h"
	.file	101 "/mnt/disk/jenkins/ci/workspace/chipset_pipeline_release/opensource/component_code/vendor/huawei/extra/build/build_script/kirin_kernel_release/kernel/include/linux/rcuwait.h"
	.file	102 "/mnt/disk/jenkins/ci/workspace/chipset_pipeline_release/opensource/component_code/vendor/huawei/extra/build/build_script/kirin_kernel_release/kernel/include/linux/uuid.h"
	.file	103 "/mnt/disk/jenkins/ci/workspace/chipset_pipeline_release/opensource/component_code/vendor/huawei/extra/build/build_script/kirin_kernel_release/kernel/include/linux/list_lru.h"
	.file	104 "/mnt/disk/jenkins/ci/workspace/chipset_pipeline_release/opensource/component_code/vendor/huawei/extra/build/build_script/kirin_kernel_release/kernel/include/linux/delayed_call.h"
	.file	105 "/mnt/disk/jenkins/ci/workspace/chipset_pipeline_release/opensource/component_code/vendor/huawei/extra/build/build_script/kirin_kernel_release/kernel/include/uapi/linux/time.h"
	.file	106 "/mnt/disk/jenkins/ci/workspace/chipset_pipeline_release/opensource/component_code/vendor/huawei/extra/build/build_script/kirin_kernel_release/kernel/include/linux/stat.h"
	.file	107 "/mnt/disk/jenkins/ci/workspace/chipset_pipeline_release/opensource/component_code/vendor/huawei/extra/build/build_script/kirin_kernel_release/kernel/include/uapi/linux/fiemap.h"
	.file	108 "/mnt/disk/jenkins/ci/workspace/chipset_pipeline_release/opensource/component_code/vendor/huawei/extra/build/build_script/kirin_kernel_release/kernel/include/linux/mmzone.h"
	.file	109 "/mnt/disk/jenkins/ci/workspace/chipset_pipeline_release/opensource/component_code/vendor/huawei/extra/build/build_script/kirin_kernel_release/kernel/include/linux/ioport.h"
	.file	110 "/mnt/disk/jenkins/ci/workspace/chipset_pipeline_release/opensource/component_code/vendor/huawei/extra/build/build_script/kirin_kernel_release/kernel/arch/arm64/include/asm/page.h"
	.file	111 "/mnt/disk/jenkins/ci/workspace/chipset_pipeline_release/opensource/component_code/vendor/huawei/extra/build/build_script/kirin_kernel_release/kernel/include/linux/mm_types_task.h"
	.file	112 "/mnt/disk/jenkins/ci/workspace/chipset_pipeline_release/opensource/component_code/vendor/huawei/extra/build/build_script/kirin_kernel_release/kernel/arch/arm64/include/asm/mmu.h"
	.file	113 "/mnt/disk/jenkins/ci/workspace/chipset_pipeline_release/opensource/component_code/vendor/huawei/extra/build/build_script/kirin_kernel_release/kernel/include/linux/uprobes.h"
	.file	114 "/mnt/disk/jenkins/ci/workspace/chipset_pipeline_release/opensource/component_code/vendor/huawei/extra/build/build_script/kirin_kernel_release/kernel/arch/arm64/include/asm/compat.h"
	.file	115 "/mnt/disk/jenkins/ci/workspace/chipset_pipeline_release/opensource/component_code/vendor/huawei/extra/build/build_script/kirin_kernel_release/kernel/include/uapi/asm-generic/poll.h"
	.file	116 "/mnt/disk/jenkins/ci/workspace/chipset_pipeline_release/opensource/component_code/vendor/huawei/extra/build/build_script/kirin_kernel_release/kernel/include/uapi/asm-generic/signal.h"
	.file	117 "/mnt/disk/jenkins/ci/workspace/chipset_pipeline_release/opensource/component_code/vendor/huawei/extra/build/build_script/kirin_kernel_release/kernel/include/linux/signal_types.h"
	.file	118 "/mnt/disk/jenkins/ci/workspace/chipset_pipeline_release/opensource/component_code/vendor/huawei/extra/build/build_script/kirin_kernel_release/kernel/include/linux/seccomp.h"
	.file	119 "/mnt/disk/jenkins/ci/workspace/chipset_pipeline_release/opensource/component_code/vendor/huawei/extra/build/build_script/kirin_kernel_release/kernel/include/linux/blk_types.h"
	.file	120 "/mnt/disk/jenkins/ci/workspace/chipset_pipeline_release/opensource/component_code/vendor/huawei/extra/build/build_script/kirin_kernel_release/kernel/include/linux/iocontext.h"
	.file	121 "/mnt/disk/jenkins/ci/workspace/chipset_pipeline_release/opensource/component_code/vendor/huawei/extra/build/build_script/kirin_kernel_release/kernel/include/linux/bio.h"
	.file	122 "/mnt/disk/jenkins/ci/workspace/chipset_pipeline_release/opensource/component_code/vendor/huawei/extra/build/build_script/kirin_kernel_release/kernel/include/linux/mempool.h"
	.file	123 "/mnt/disk/jenkins/ci/workspace/chipset_pipeline_release/opensource/component_code/vendor/huawei/extra/build/build_script/kirin_kernel_release/kernel/include/uapi/asm-generic/siginfo.h"
	.file	124 "/mnt/disk/jenkins/ci/workspace/chipset_pipeline_release/opensource/component_code/vendor/huawei/extra/build/build_script/kirin_kernel_release/kernel/include/linux/task_io_accounting.h"
	.file	125 "/mnt/disk/jenkins/ci/workspace/chipset_pipeline_release/opensource/component_code/vendor/huawei/extra/build/build_script/kirin_kernel_release/kernel/include/linux/nodemask.h"
	.file	126 "/mnt/disk/jenkins/ci/workspace/chipset_pipeline_release/opensource/component_code/vendor/huawei/extra/build/build_script/kirin_kernel_release/kernel/include/linux/compat.h"
	.file	127 "/mnt/disk/jenkins/ci/workspace/chipset_pipeline_release/opensource/component_code/vendor/huawei/extra/build/build_script/kirin_kernel_release/kernel/arch/arm64/include/asm/processor.h"
	.file	128 "/mnt/disk/jenkins/ci/workspace/chipset_pipeline_release/opensource/component_code/vendor/huawei/extra/build/build_script/kirin_kernel_release/kernel/block/mas_blk_busy_idle_notify.c"
	.file	129 "/mnt/disk/jenkins/ci/workspace/chipset_pipeline_release/opensource/component_code/vendor/huawei/extra/build/build_script/kirin_kernel_release/kernel/arch/arm64/include/uapi/asm/ptrace.h"
	.file	130 "/mnt/disk/jenkins/ci/workspace/chipset_pipeline_release/opensource/component_code/vendor/huawei/extra/build/build_script/kirin_kernel_release/kernel/arch/arm64/include/asm/fpsimd.h"
	.file	131 "/mnt/disk/jenkins/ci/workspace/chipset_pipeline_release/opensource/component_code/vendor/huawei/extra/build/build_script/kirin_kernel_release/kernel/include/linux/blk-mq.h"
	.file	132 "/mnt/disk/jenkins/ci/workspace/chipset_pipeline_release/opensource/component_code/vendor/huawei/extra/build/build_script/kirin_kernel_release/kernel/block/blk.h"
	.file	133 "/mnt/disk/jenkins/ci/workspace/chipset_pipeline_release/opensource/component_code/vendor/huawei/extra/build/build_script/kirin_kernel_release/kernel/include/linux/sbitmap.h"
	.file	134 "/mnt/disk/jenkins/ci/workspace/chipset_pipeline_release/opensource/component_code/vendor/huawei/extra/build/build_script/kirin_kernel_release/kernel/block/blk-mq-tag.h"
	.file	135 "/mnt/disk/jenkins/ci/workspace/chipset_pipeline_release/opensource/component_code/vendor/huawei/extra/build/build_script/kirin_kernel_release/kernel/include/linux/srcutree.h"
	.file	136 "/mnt/disk/jenkins/ci/workspace/chipset_pipeline_release/opensource/component_code/vendor/huawei/extra/build/build_script/kirin_kernel_release/kernel/include/linux/rcu_segcblist.h"
	.file	137 "/mnt/disk/jenkins/ci/workspace/chipset_pipeline_release/opensource/component_code/vendor/huawei/extra/build/build_script/kirin_kernel_release/kernel/block/blk-stat.h"
	.file	138 "/mnt/disk/jenkins/ci/workspace/chipset_pipeline_release/opensource/component_code/vendor/huawei/extra/build/build_script/kirin_kernel_release/kernel/include/linux/bsg.h"
	.section	.text.mas_blk_busyidle_handler_latency_check_timer_expire,"ax",@progbits
	.hidden	mas_blk_busyidle_handler_latency_check_timer_expire // -- Begin function mas_blk_busyidle_handler_latency_check_timer_expire
	.globl	mas_blk_busyidle_handler_latency_check_timer_expire
	.p2align	2
	.type	mas_blk_busyidle_handler_latency_check_timer_expire,@function
mas_blk_busyidle_handler_latency_check_timer_expire: // @mas_blk_busyidle_handler_latency_check_timer_expire
.Lfunc_begin0:
	.loc	2 50 0                  // kernel/block/mas_blk_busy_idle_notify.c:50:0
	.cfi_sections .debug_frame
	.cfi_startproc
// %bb.0:
	//DEBUG_VALUE: mas_blk_busyidle_handler_latency_check_timer_expire:data <- $x0
	//DEBUG_VALUE: mas_blk_busyidle_handler_latency_check_timer_expire:data <- $x0
	stp	x29, x30, [sp, #-16]!   // 16-byte Folded Spill
	mov	x29, sp
	.cfi_def_cfa w29, 16
	.cfi_offset w30, -8
	.cfi_offset w29, -16
.Ltmp0:
	//DEBUG_VALUE: mas_blk_busyidle_handler_latency_check_timer_expire:nb <- $x0
	.loc	2 53 2 prologue_end     // kernel/block/mas_blk_busy_idle_notify.c:53:2
	add	x2, x0, #88             // =88
	adrp	x0, .L.str
.Ltmp1:
	adrp	x1, .L__func__.mas_blk_busyidle_handler_latency_check_timer_expire
	add	x0, x0, :lo12:.L.str
	add	x1, x1, :lo12:.L__func__.mas_blk_busyidle_handler_latency_check_timer_expire
	mov	w3, #1000
	bl	printk
	.loc	2 55 1                  // kernel/block/mas_blk_busy_idle_notify.c:55:1
	ldp	x29, x30, [sp], #16     // 16-byte Folded Reload
	ret
.Ltmp2:
.Lfunc_end0:
	.size	mas_blk_busyidle_handler_latency_check_timer_expire, .Lfunc_end0-mas_blk_busyidle_handler_latency_check_timer_expire
	.cfi_endproc
                                        // -- End function
	.section	.text.mas_blk_busyidle_notify_handler,"ax",@progbits
	.hidden	mas_blk_busyidle_notify_handler // -- Begin function mas_blk_busyidle_notify_handler
	.globl	mas_blk_busyidle_notify_handler
	.p2align	2
	.type	mas_blk_busyidle_notify_handler,@function
mas_blk_busyidle_notify_handler:        // @mas_blk_busyidle_notify_handler
.Lfunc_begin1:
	.loc	2 140 0                 // kernel/block/mas_blk_busy_idle_notify.c:140:0
	.cfi_startproc
// %bb.0:
	//DEBUG_VALUE: mas_blk_busyidle_notify_handler:nb <- $x0
	//DEBUG_VALUE: mas_blk_busyidle_notify_handler:event <- $x1
	//DEBUG_VALUE: mas_blk_busyidle_notify_handler:v <- $x2
	//DEBUG_VALUE: mas_blk_busyidle_notify_handler:nb <- $x0
	str	x23, [sp, #-64]!        // 8-byte Folded Spill
	stp	x22, x21, [sp, #16]     // 16-byte Folded Spill
	stp	x20, x19, [sp, #32]     // 16-byte Folded Spill
	stp	x29, x30, [sp, #48]     // 16-byte Folded Spill
	add	x29, sp, #48            // =48
	.cfi_def_cfa w29, 16
	.cfi_offset w30, -8
	.cfi_offset w29, -16
	.cfi_offset w19, -24
	.cfi_offset w20, -32
	.cfi_offset w21, -40
	.cfi_offset w22, -48
	.cfi_offset w23, -64
.Ltmp3:
	//DEBUG_VALUE: __mptr <- $x0
	//DEBUG_VALUE: mas_blk_busyidle_notify_handler:handler_result <- 0
	//DEBUG_VALUE: __mptr <- $x0
	.loc	2 147 6 prologue_end    // kernel/block/mas_blk_busy_idle_notify.c:147:6
	ldr	x8, [x0, #56]
.Ltmp4:
	.loc	2 145 56                // kernel/block/mas_blk_busy_idle_notify.c:145:56
	add	x19, x0, #24            // =24
.Ltmp5:
	//DEBUG_VALUE: mas_blk_busyidle_notify_handler:node <- $x19
	//DEBUG_VALUE: handle_busyidle_event:node <- $x19
	.loc	2 147 6                 // kernel/block/mas_blk_busy_idle_notify.c:147:6
	cbz	x8, .LBB1_13
.Ltmp6:
// %bb.1:
	//DEBUG_VALUE: handle_busyidle_event:node <- $x19
	//DEBUG_VALUE: mas_blk_busyidle_notify_handler:node <- $x19
	//DEBUG_VALUE: mas_blk_busyidle_notify_handler:v <- $x2
	//DEBUG_VALUE: mas_blk_busyidle_notify_handler:event <- $x1
	//DEBUG_VALUE: mas_blk_busyidle_notify_handler:nb <- $x0
	.loc	2 0 6 is_stmt 0         // kernel/block/mas_blk_busy_idle_notify.c:0:6
	mov	x22, x1
.Ltmp7:
	//DEBUG_VALUE: mas_blk_busyidle_notify_handler:event <- $x22
	sub	x23, x0, #64            // =64
.Ltmp8:
	//DEBUG_VALUE: mas_blk_busyidle_notify_handler:busyidle_nb <- $x23
	.loc	2 156 16 is_stmt 1      // kernel/block/mas_blk_busy_idle_notify.c:156:16
	bl	ktime_get
.Ltmp9:
	.loc	2 158 3                 // kernel/block/mas_blk_busy_idle_notify.c:158:3
	adrp	x8, jiffies
	ldr	x8, [x8, :lo12:jiffies]
	.loc	2 157 26                // kernel/block/mas_blk_busy_idle_notify.c:157:26
	add	x21, x23, #16           // =16
	.loc	2 156 16                // kernel/block/mas_blk_busy_idle_notify.c:156:16
	mov	x20, x0
.Ltmp10:
	//DEBUG_VALUE: mas_blk_busyidle_notify_handler:start_ktime <- $x20
	//DEBUG_VALUE: ktime_add_ms:kt <- $x20
	.loc	2 157 2                 // kernel/block/mas_blk_busy_idle_notify.c:157:2
	mov	x0, x21
	.loc	2 158 11                // kernel/block/mas_blk_busy_idle_notify.c:158:11
	add	x1, x8, #250            // =250
	.loc	2 157 2                 // kernel/block/mas_blk_busy_idle_notify.c:157:2
	bl	mod_timer
.Ltmp11:
	//DEBUG_VALUE: handle_busyidle_event:ret <- 0
	//DEBUG_VALUE: handle_busyidle_event:event <- $x22
	//DEBUG_VALUE: handle_busyidle_event:nb <- $x23
	.loc	2 103 2                 // kernel/block/mas_blk_busy_idle_notify.c:103:2
	cbz	x22, .LBB1_6
.Ltmp12:
// %bb.2:
	//DEBUG_VALUE: handle_busyidle_event:nb <- $x23
	//DEBUG_VALUE: handle_busyidle_event:event <- $x22
	//DEBUG_VALUE: mas_blk_busyidle_notify_handler:start_ktime <- $x20
	//DEBUG_VALUE: mas_blk_busyidle_notify_handler:busyidle_nb <- $x23
	//DEBUG_VALUE: mas_blk_busyidle_notify_handler:event <- $x22
	//DEBUG_VALUE: handle_busyidle_event:node <- $x19
	//DEBUG_VALUE: mas_blk_busyidle_notify_handler:node <- $x19
	cmp	x22, #1                 // =1
	b.ne	.LBB1_10
.Ltmp13:
// %bb.3:
	//DEBUG_VALUE: handle_busyidle_event:nb <- $x23
	//DEBUG_VALUE: handle_busyidle_event:event <- $x22
	//DEBUG_VALUE: mas_blk_busyidle_notify_handler:start_ktime <- $x20
	//DEBUG_VALUE: mas_blk_busyidle_notify_handler:busyidle_nb <- $x23
	//DEBUG_VALUE: mas_blk_busyidle_notify_handler:event <- $x22
	//DEBUG_VALUE: handle_busyidle_event:node <- $x19
	//DEBUG_VALUE: mas_blk_busyidle_notify_handler:node <- $x19
	.loc	2 105 7                 // kernel/block/mas_blk_busy_idle_notify.c:105:7
	ldr	w8, [x23, #144]
.Ltmp14:
	.loc	2 105 7 is_stmt 0       // kernel/block/mas_blk_busy_idle_notify.c:105:7
	cbnz	w8, .LBB1_10
.Ltmp15:
// %bb.4:
	//DEBUG_VALUE: handle_busyidle_event:nb <- $x23
	//DEBUG_VALUE: handle_busyidle_event:event <- $x22
	//DEBUG_VALUE: mas_blk_busyidle_notify_handler:start_ktime <- $x20
	//DEBUG_VALUE: mas_blk_busyidle_notify_handler:busyidle_nb <- $x23
	//DEBUG_VALUE: mas_blk_busyidle_notify_handler:event <- $x22
	//DEBUG_VALUE: handle_busyidle_event:node <- $x19
	//DEBUG_VALUE: mas_blk_busyidle_notify_handler:node <- $x19
	.loc	2 106 16 is_stmt 1      // kernel/block/mas_blk_busy_idle_notify.c:106:16
	ldr	x8, [x23, #120]
	.loc	2 106 10 is_stmt 0      // kernel/block/mas_blk_busy_idle_notify.c:106:10
	orr	w1, wzr, #0x1
	mov	x0, x19
	orr	w22, wzr, #0x1
.Ltmp16:
	blr	x8
.Ltmp17:
	//DEBUG_VALUE: handle_busyidle_event:ret <- $w0
	.loc	2 110 8 is_stmt 1       // kernel/block/mas_blk_busy_idle_notify.c:110:8
	cmp	w0, #1                  // =1
	.loc	2 109 19                // kernel/block/mas_blk_busy_idle_notify.c:109:19
	str	w22, [x23, #144]
	.loc	2 110 8                 // kernel/block/mas_blk_busy_idle_notify.c:110:8
	b.ne	.LBB1_8
.Ltmp18:
// %bb.5:
	//DEBUG_VALUE: handle_busyidle_event:ret <- $w0
	//DEBUG_VALUE: handle_busyidle_event:nb <- $x23
	//DEBUG_VALUE: mas_blk_busyidle_notify_handler:start_ktime <- $x20
	//DEBUG_VALUE: mas_blk_busyidle_notify_handler:busyidle_nb <- $x23
	//DEBUG_VALUE: handle_busyidle_event:node <- $x19
	//DEBUG_VALUE: mas_blk_busyidle_notify_handler:node <- $x19
	.loc	2 0 8 is_stmt 0         // kernel/block/mas_blk_busy_idle_notify.c:0:8
	mov	w22, #32769
	b	.LBB1_11
.Ltmp19:
.LBB1_6:
	//DEBUG_VALUE: handle_busyidle_event:nb <- $x23
	//DEBUG_VALUE: handle_busyidle_event:event <- $x22
	//DEBUG_VALUE: mas_blk_busyidle_notify_handler:start_ktime <- $x20
	//DEBUG_VALUE: mas_blk_busyidle_notify_handler:busyidle_nb <- $x23
	//DEBUG_VALUE: mas_blk_busyidle_notify_handler:event <- $x22
	//DEBUG_VALUE: handle_busyidle_event:node <- $x19
	//DEBUG_VALUE: mas_blk_busyidle_notify_handler:node <- $x19
	.loc	2 115 7 is_stmt 1       // kernel/block/mas_blk_busy_idle_notify.c:115:7
	ldr	w8, [x23, #144]
.Ltmp20:
	.loc	2 115 7 is_stmt 0       // kernel/block/mas_blk_busy_idle_notify.c:115:7
	cmp	w8, #1                  // =1
	b.ne	.LBB1_10
.Ltmp21:
// %bb.7:
	//DEBUG_VALUE: handle_busyidle_event:nb <- $x23
	//DEBUG_VALUE: handle_busyidle_event:event <- $x22
	//DEBUG_VALUE: mas_blk_busyidle_notify_handler:start_ktime <- $x20
	//DEBUG_VALUE: mas_blk_busyidle_notify_handler:busyidle_nb <- $x23
	//DEBUG_VALUE: mas_blk_busyidle_notify_handler:event <- $x22
	//DEBUG_VALUE: handle_busyidle_event:node <- $x19
	//DEBUG_VALUE: mas_blk_busyidle_notify_handler:node <- $x19
	.loc	2 116 16 is_stmt 1      // kernel/block/mas_blk_busy_idle_notify.c:116:16
	ldr	x8, [x23, #120]
	.loc	2 116 10 is_stmt 0      // kernel/block/mas_blk_busy_idle_notify.c:116:10
	mov	x0, x19
	mov	w1, wzr
	blr	x8
.Ltmp22:
	//DEBUG_VALUE: handle_busyidle_event:ret <- $w0
	.loc	2 119 19 is_stmt 1      // kernel/block/mas_blk_busy_idle_notify.c:119:19
	str	wzr, [x23, #144]
.Ltmp23:
.LBB1_8:
	//DEBUG_VALUE: mas_blk_busyidle_notify_handler:start_ktime <- $x20
	//DEBUG_VALUE: mas_blk_busyidle_notify_handler:busyidle_nb <- $x23
	//DEBUG_VALUE: mas_blk_busyidle_notify_handler:node <- $x19
	.loc	2 160 6                 // kernel/block/mas_blk_busy_idle_notify.c:160:6
	cmp	w0, #2                  // =2
	b.ne	.LBB1_10
.Ltmp24:
// %bb.9:
	//DEBUG_VALUE: mas_blk_busyidle_notify_handler:start_ktime <- $x20
	//DEBUG_VALUE: mas_blk_busyidle_notify_handler:busyidle_nb <- $x23
	//DEBUG_VALUE: mas_blk_busyidle_notify_handler:node <- $x19
	.loc	2 162 3                 // kernel/block/mas_blk_busy_idle_notify.c:162:3
	adrp	x0, .L.str.2
	adrp	x1, .L__func__.mas_blk_busyidle_notify_handler
	add	x0, x0, :lo12:.L.str.2
	add	x1, x1, :lo12:.L__func__.mas_blk_busyidle_notify_handler
	mov	x2, x19
	bl	printk
.Ltmp25:
.LBB1_10:
	//DEBUG_VALUE: mas_blk_busyidle_notify_handler:start_ktime <- $x20
	//DEBUG_VALUE: mas_blk_busyidle_notify_handler:busyidle_nb <- $x23
	//DEBUG_VALUE: mas_blk_busyidle_notify_handler:node <- $x19
	.loc	2 0 3 is_stmt 0         // kernel/block/mas_blk_busy_idle_notify.c:0:3
	mov	w22, wzr
.Ltmp26:
.LBB1_11:
	//DEBUG_VALUE: mas_blk_busyidle_notify_handler:start_ktime <- $x20
	//DEBUG_VALUE: mas_blk_busyidle_notify_handler:busyidle_nb <- $x23
	//DEBUG_VALUE: mas_blk_busyidle_notify_handler:node <- $x19
	.loc	2 168 2 is_stmt 1       // kernel/block/mas_blk_busy_idle_notify.c:168:2
	mov	x0, x21
	bl	del_timer_sync
.Ltmp27:
	.loc	2 169 6                 // kernel/block/mas_blk_busy_idle_notify.c:169:6
	bl	ktime_get
.Ltmp28:
	//DEBUG_VALUE: ktime_after:cmp1 <- $x0
	//DEBUG_VALUE: ktime_compare:cmp1 <- $x0
	.loc	2 0 6 is_stmt 0         // kernel/block/mas_blk_busy_idle_notify.c:0:6
	mov	w8, #38528
	movk	w8, #152, lsl #16
.Ltmp29:
	//DEBUG_VALUE: ktime_add_ms:msec <- 10
	.loc	47 200 9 is_stmt 1      // kernel/include/linux/ktime.h:200:9
	add	x8, x20, x8
.Ltmp30:
	//DEBUG_VALUE: ktime_compare:cmp2 <- $x8
	//DEBUG_VALUE: ktime_after:cmp2 <- $x8
	.loc	2 169 6                 // kernel/block/mas_blk_busy_idle_notify.c:169:6
	cmp	x0, x8
	b.gt	.LBB1_14
.Ltmp31:
.LBB1_12:
	//DEBUG_VALUE: mas_blk_busyidle_notify_handler:node <- $x19
	.loc	2 176 1                 // kernel/block/mas_blk_busy_idle_notify.c:176:1
	mov	w0, w22
	ldp	x29, x30, [sp, #48]     // 16-byte Folded Reload
	ldp	x20, x19, [sp, #32]     // 16-byte Folded Reload
.Ltmp32:
	ldp	x22, x21, [sp, #16]     // 16-byte Folded Reload
	ldr	x23, [sp], #64          // 8-byte Folded Reload
	ret
.LBB1_13:
.Ltmp33:
	//DEBUG_VALUE: mas_blk_busyidle_notify_handler:node <- $x19
	//DEBUG_VALUE: mas_blk_busyidle_notify_handler:v <- $x2
	//DEBUG_VALUE: mas_blk_busyidle_notify_handler:event <- $x1
	//DEBUG_VALUE: mas_blk_busyidle_notify_handler:nb <- $x0
	.loc	2 148 3                 // kernel/block/mas_blk_busy_idle_notify.c:148:3
	adrp	x0, .L.str.1
.Ltmp34:
	adrp	x1, .L__func__.mas_blk_busyidle_notify_handler
.Ltmp35:
	add	x0, x0, :lo12:.L.str.1
	add	x1, x1, :lo12:.L__func__.mas_blk_busyidle_notify_handler
	mov	x2, x19
.Ltmp36:
	bl	printk
.Ltmp37:
	.loc	2 0 0 is_stmt 0         // kernel/block/mas_blk_busy_idle_notify.c:0:0
	mov	w22, wzr
	b	.LBB1_12
.Ltmp38:
.LBB1_14:
	//DEBUG_VALUE: mas_blk_busyidle_notify_handler:start_ktime <- $x20
	//DEBUG_VALUE: mas_blk_busyidle_notify_handler:busyidle_nb <- $x23
	//DEBUG_VALUE: mas_blk_busyidle_notify_handler:node <- $x19
	.loc	2 171 3 is_stmt 1       // kernel/block/mas_blk_busy_idle_notify.c:171:3
	bl	ktime_get
	mov	x9, #13531
	movk	x9, #55222, lsl #16
	movk	x9, #56962, lsl #32
	sub	x8, x0, x20
	movk	x9, #17179, lsl #48
.Ltmp39:
	//DEBUG_VALUE: ktime_divns:div <- 1000000
	//DEBUG_VALUE: ktime_divns:kt <- $x8
	//DEBUG_VALUE: ktime_to_ms:kt <- $x8
	.loc	47 169 12               // kernel/include/linux/ktime.h:169:12
	smulh	x8, x8, x9
.Ltmp40:
	asr	x9, x8, #18
.Ltmp41:
	.loc	2 171 3                 // kernel/block/mas_blk_busy_idle_notify.c:171:3
	adrp	x0, .L.str.3
	adrp	x1, .L__func__.mas_blk_busyidle_notify_handler
.Ltmp42:
	.loc	47 169 12               // kernel/include/linux/ktime.h:169:12
	add	x3, x9, x8, lsr #63
.Ltmp43:
	.loc	2 171 3                 // kernel/block/mas_blk_busy_idle_notify.c:171:3
	add	x0, x0, :lo12:.L.str.3
	add	x1, x1, :lo12:.L__func__.mas_blk_busyidle_notify_handler
	mov	x2, x19
	bl	printk
	b	.LBB1_12
.Ltmp44:
.Lfunc_end1:
	.size	mas_blk_busyidle_notify_handler, .Lfunc_end1-mas_blk_busyidle_notify_handler
	.cfi_endproc
                                        // -- End function
	.section	.text.mas_blk_idle_notify_work,"ax",@progbits
	.hidden	mas_blk_idle_notify_work // -- Begin function mas_blk_idle_notify_work
	.globl	mas_blk_idle_notify_work
	.p2align	2
	.type	mas_blk_idle_notify_work,@function
mas_blk_idle_notify_work:               // @mas_blk_idle_notify_work
.Lfunc_begin2:
	.loc	2 424 0                 // kernel/block/mas_blk_busy_idle_notify.c:424:0
	.cfi_startproc
// %bb.0:
	//DEBUG_VALUE: mas_blk_idle_notify_work:work <- $x0
	stp	x20, x19, [sp, #-32]!   // 16-byte Folded Spill
	stp	x29, x30, [sp, #16]     // 16-byte Folded Spill
	add	x29, sp, #16            // =16
	.cfi_def_cfa w29, 16
	.cfi_offset w30, -8
	.cfi_offset w29, -16
	.cfi_offset w19, -24
	.cfi_offset w20, -32
.Ltmp45:
	//DEBUG_VALUE: __mptr <- $x0
	mov	x20, x0
.Ltmp46:
	//DEBUG_VALUE: mas_blk_idle_notify_work:blk_idle <- $x20
	//DEBUG_VALUE: blk_busy_to_idle:blk_idle <- $x20
	//DEBUG_VALUE: __mptr <- $x20
	//DEBUG_VALUE: mas_blk_idle_notify_work:work <- $x20
	.loc	2 429 16 prologue_end   // kernel/block/mas_blk_busy_idle_notify.c:429:16
	ldrb	w8, [x20, #-8]!
.Ltmp47:
	.loc	2 429 6 is_stmt 0       // kernel/block/mas_blk_busy_idle_notify.c:429:6
	cbz	w8, .LBB2_2
// %bb.1:
.Ltmp48:
	//DEBUG_VALUE: __write_once_size:res <- undef
	//DEBUG_VALUE: __write_once_size:size <- 4
	//DEBUG_VALUE: __write_once_size:p <- [DW_OP_plus_uconst 208, DW_OP_stack_value] $x20
	.file	139 "/mnt/disk/jenkins/ci/workspace/chipset_pipeline_release/opensource/component_code/vendor/huawei/extra/build/build_script/kirin_kernel_release/kernel/include/linux/compiler.h"
	.loc	139 209 31 is_stmt 1    // kernel/include/linux/compiler.h:209:31
	str	wzr, [x20, #208]
.Ltmp49:
.LBB2_2:
	.loc	2 432 24                // kernel/block/mas_blk_busy_idle_notify.c:432:24
	add	x19, x20, #216          // =216
	.loc	2 432 2 is_stmt 0       // kernel/block/mas_blk_busy_idle_notify.c:432:2
	mov	x0, x19
	bl	mutex_lock
.Ltmp50:
	//DEBUG_VALUE: __read_once_size:p <- [DW_OP_plus_uconst 208, DW_OP_stack_value] $x20
	//DEBUG_VALUE: __read_once_size:size <- 4
	//DEBUG_VALUE: __read_once_size:res <- undef
	.loc	139 183 2 is_stmt 1     // kernel/include/linux/compiler.h:183:2
	ldr	w8, [x20, #208]
.Ltmp51:
	.loc	2 433 40                // kernel/block/mas_blk_busy_idle_notify.c:433:40
	cbnz	w8, .LBB2_5
.Ltmp52:
// %bb.3:
	.loc	2 434 14                // kernel/block/mas_blk_busy_idle_notify.c:434:14
	ldr	w8, [x20, #280]
.Ltmp53:
	.loc	2 433 6                 // kernel/block/mas_blk_busy_idle_notify.c:433:6
	cmp	w8, #1                  // =1
	b.eq	.LBB2_5
// %bb.4:
	.loc	2 0 6 is_stmt 0         // kernel/block/mas_blk_busy_idle_notify.c:0:6
	orr	w8, wzr, #0x1
.Ltmp54:
	.loc	2 343 42 is_stmt 1      // kernel/block/mas_blk_busy_idle_notify.c:343:42
	add	x0, x20, #128           // =128
	.loc	2 343 2 is_stmt 0       // kernel/block/mas_blk_busy_idle_notify.c:343:2
	orr	w1, wzr, #0x1
	mov	x2, xzr
	.loc	2 333 23 is_stmt 1      // kernel/block/mas_blk_busy_idle_notify.c:333:23
	str	w8, [x20, #280]
	.loc	2 343 2                 // kernel/block/mas_blk_busy_idle_notify.c:343:2
	bl	blocking_notifier_call_chain
.Ltmp55:
.LBB2_5:
	.loc	2 436 2                 // kernel/block/mas_blk_busy_idle_notify.c:436:2
	mov	x0, x19
	bl	mutex_unlock
	.loc	2 437 1                 // kernel/block/mas_blk_busy_idle_notify.c:437:1
	ldp	x29, x30, [sp, #16]     // 16-byte Folded Reload
	ldp	x20, x19, [sp], #32     // 16-byte Folded Reload
	ret
.Ltmp56:
.Lfunc_end2:
	.size	mas_blk_idle_notify_work, .Lfunc_end2-mas_blk_idle_notify_work
	.cfi_endproc
                                        // -- End function
	.section	.text.blk_lld_idle_notify,"ax",@progbits
	.hidden	blk_lld_idle_notify     // -- Begin function blk_lld_idle_notify
	.globl	blk_lld_idle_notify
	.p2align	2
	.type	blk_lld_idle_notify,@function
blk_lld_idle_notify:                    // @blk_lld_idle_notify
.Lfunc_begin3:
	.loc	2 440 0                 // kernel/block/mas_blk_busy_idle_notify.c:440:0
	.cfi_startproc
// %bb.0:
	//DEBUG_VALUE: blk_lld_idle_notify:lld <- $x0
	//DEBUG_VALUE: blk_lld_idle_notify:lld <- $x0
	.loc	2 441 6 prologue_end    // kernel/block/mas_blk_busy_idle_notify.c:441:6
	ldr	w8, [x0]
.Ltmp57:
	.loc	2 441 6 is_stmt 0       // kernel/block/mas_blk_busy_idle_notify.c:441:6
	cmp	w8, #122                // =122
	b.ne	.LBB3_2
.Ltmp58:
// %bb.1:
	//DEBUG_VALUE: blk_lld_idle_notify:lld <- $x0
	stp	x20, x19, [sp, #-32]!   // 16-byte Folded Spill
	stp	x29, x30, [sp, #16]     // 16-byte Folded Spill
	add	x29, sp, #16            // =16
	.cfi_def_cfa w29, 16
	.cfi_offset w30, -8
	.cfi_offset w29, -16
	.cfi_offset w19, -24
	.cfi_offset w20, -32
.Ltmp59:
	.loc	2 442 22 is_stmt 1      // kernel/block/mas_blk_busy_idle_notify.c:442:22
	adrp	x8, blk_idle_notify_workqueue
	ldr	x19, [x8, :lo12:blk_idle_notify_workqueue]
	.loc	2 445 35                // kernel/block/mas_blk_busy_idle_notify.c:445:35
	ldr	w8, [x0, #184]
	.loc	2 444 6                 // kernel/block/mas_blk_busy_idle_notify.c:444:6
	add	x20, x0, #88            // =88
.Ltmp60:
	//DEBUG_VALUE: msecs_to_jiffies:m <- $w8
	.file	140 "/mnt/disk/jenkins/ci/workspace/chipset_pipeline_release/opensource/component_code/vendor/huawei/extra/build/build_script/kirin_kernel_release/kernel/include/linux/jiffies.h"
	.loc	140 370 10              // kernel/include/linux/jiffies.h:370:10
	mov	w0, w8
.Ltmp61:
	bl	__msecs_to_jiffies
.Ltmp62:
	mov	x3, x0
.Ltmp63:
	//DEBUG_VALUE: queue_delayed_work:delay <- $x3
	//DEBUG_VALUE: queue_delayed_work:dwork <- $x20
	//DEBUG_VALUE: queue_delayed_work:wq <- $x19
	.loc	20 506 9                // kernel/include/linux/workqueue.h:506:9
	orr	w0, wzr, #0x8
	mov	x1, x19
	mov	x2, x20
	bl	queue_delayed_work_on
.Ltmp64:
	.loc	20 0 9 is_stmt 0        // kernel/include/linux/workqueue.h:0:9
	ldp	x29, x30, [sp, #16]     // 16-byte Folded Reload
	ldp	x20, x19, [sp], #32     // 16-byte Folded Reload
.Ltmp65:
.LBB3_2:
	.loc	2 446 1 is_stmt 1       // kernel/block/mas_blk_busy_idle_notify.c:446:1
	ret
.Ltmp66:
.Lfunc_end3:
	.size	blk_lld_idle_notify, .Lfunc_end3-blk_lld_idle_notify
	.cfi_endproc
                                        // -- End function
	.section	.text.mas_blk_busyidle_check_bio,"ax",@progbits
	.hidden	mas_blk_busyidle_check_bio // -- Begin function mas_blk_busyidle_check_bio
	.globl	mas_blk_busyidle_check_bio
	.p2align	2
	.type	mas_blk_busyidle_check_bio,@function
mas_blk_busyidle_check_bio:             // @mas_blk_busyidle_check_bio
.Lfunc_begin4:
	.loc	2 739 0                 // kernel/block/mas_blk_busy_idle_notify.c:739:0
	.cfi_startproc
// %bb.0:
	//DEBUG_VALUE: mas_blk_busyidle_check_bio:q <- $x0
	//DEBUG_VALUE: mas_blk_busyidle_check_bio:bio <- $x1
	str	x21, [sp, #-48]!        // 8-byte Folded Spill
	stp	x20, x19, [sp, #16]     // 16-byte Folded Spill
	stp	x29, x30, [sp, #32]     // 16-byte Folded Spill
	add	x29, sp, #32            // =32
	.cfi_def_cfa w29, 16
	.cfi_offset w30, -8
	.cfi_offset w29, -16
	.cfi_offset w19, -24
	.cfi_offset w20, -32
	.cfi_offset w21, -48
	mov	x20, x1
	mov	x21, x0
.Ltmp67:
	//DEBUG_VALUE: mas_blk_busyidle_check_bio:bio <- $x20
	//DEBUG_VALUE: mas_blk_busyidle_check_bio:q <- $x21
	.loc	2 740 28 prologue_end   // kernel/block/mas_blk_busy_idle_notify.c:740:28
	bl	mas_blk_get_lld
.Ltmp68:
	.loc	2 744 6                 // kernel/block/mas_blk_busy_idle_notify.c:744:6
	ldrb	w8, [x20, #152]
.Ltmp69:
	.loc	2 742 17                // kernel/block/mas_blk_busy_idle_notify.c:742:17
	str	x21, [x20, #104]
	.loc	2 744 6                 // kernel/block/mas_blk_busy_idle_notify.c:744:6
	tbnz	w8, #0, .LBB4_4
.Ltmp70:
// %bb.1:
	//DEBUG_VALUE: mas_blk_busyidle_check_bio:q <- $x21
	//DEBUG_VALUE: mas_blk_busyidle_check_bio:bio <- $x20
	.file	141 "/mnt/disk/jenkins/ci/workspace/chipset_pipeline_release/opensource/component_code/vendor/huawei/extra/build/build_script/kirin_kernel_release/kernel/include/linux/spinlock.h"
	.loc	141 306 16              // kernel/include/linux/spinlock.h:306:16
	add	x21, x0, #416           // =416
.Ltmp71:
	.loc	2 0 0 is_stmt 0         // kernel/block/mas_blk_busy_idle_notify.c:0:0
	mov	x19, x0
.Ltmp72:
	//DEBUG_VALUE: atomic_add:v <- [DW_OP_plus_uconst 288, DW_OP_stack_value] $x19
	//DEBUG_VALUE: blk_idle_to_busy:blk_idle <- [DW_OP_plus_uconst 80, DW_OP_stack_value] $x19
	//DEBUG_VALUE: blk_busy_count:blk_idle <- [DW_OP_plus_uconst 80, DW_OP_stack_value] $x19
	//DEBUG_VALUE: blk_busy_count:lld <- $x19
	//DEBUG_VALUE: spin_unlock_irqrestore:lock <- [DW_OP_plus_uconst 416, DW_OP_stack_value] $x19
	//DEBUG_VALUE: spinlock_check:lock <- [DW_OP_plus_uconst 416, DW_OP_stack_value] $x19
	//DEBUG_VALUE: mas_blk_add_bio_to_counted_list:lld <- $x19
	//DEBUG_VALUE: mas_blk_busyidle_check_bio:lld <- $x19
	.loc	2 746 27 is_stmt 1      // kernel/block/mas_blk_busy_idle_notify.c:746:27
	orr	w8, w8, #0x1
.Ltmp73:
	.loc	2 660 2                 // kernel/block/mas_blk_busy_idle_notify.c:660:2
	mov	x0, x21
.Ltmp74:
	.loc	2 746 27                // kernel/block/mas_blk_busy_idle_notify.c:746:27
	strb	w8, [x20, #152]
.Ltmp75:
	//DEBUG_VALUE: mas_blk_add_bio_to_counted_list:bio <- $x20
	.loc	2 660 2                 // kernel/block/mas_blk_busy_idle_notify.c:660:2
	bl	_raw_spin_lock_irqsave
.Ltmp76:
	.loc	2 661 25                // kernel/block/mas_blk_busy_idle_notify.c:661:25
	ldr	x8, [x19, #368]
.Ltmp77:
	.file	142 "/mnt/disk/jenkins/ci/workspace/chipset_pipeline_release/opensource/component_code/vendor/huawei/extra/build/build_script/kirin_kernel_release/kernel/include/linux/list.h"
	.loc	142 93 24               // kernel/include/linux/list.h:93:24
	ldr	x11, [x19, #392]
.Ltmp78:
	//DEBUG_VALUE: __list_add:prev <- $x11
	//DEBUG_VALUE: __list_add:next <- $x10
	//DEBUG_VALUE: __list_add:new <- $x9
	.loc	2 660 2                 // kernel/block/mas_blk_busy_idle_notify.c:660:2
	mov	x1, x0
.Ltmp79:
	//DEBUG_VALUE: mas_blk_add_bio_to_counted_list:flags <- $x1
	.loc	2 662 22                // kernel/block/mas_blk_busy_idle_notify.c:662:22
	add	x9, x20, #272           // =272
.Ltmp80:
	.loc	2 662 47 is_stmt 0      // kernel/block/mas_blk_busy_idle_notify.c:662:47
	add	x10, x19, #384          // =384
.Ltmp81:
	//DEBUG_VALUE: list_add_tail:head <- $x10
	//DEBUG_VALUE: list_add_tail:new <- $x9
	.loc	2 661 25 is_stmt 1      // kernel/block/mas_blk_busy_idle_notify.c:661:25
	add	x8, x8, #1              // =1
.Ltmp82:
	.loc	141 372 2               // kernel/include/linux/spinlock.h:372:2
	mov	x0, x21
.Ltmp83:
	.loc	142 63 13               // kernel/include/linux/list.h:63:13
	str	x9, [x19, #392]
.Ltmp84:
	.loc	2 661 25                // kernel/block/mas_blk_busy_idle_notify.c:661:25
	str	x8, [x19, #368]
.Ltmp85:
	.loc	142 64 12               // kernel/include/linux/list.h:64:12
	stp	x10, x11, [x20, #272]
	//DEBUG_VALUE: __list_add:prev <- $x11
	//DEBUG_VALUE: list_add_tail:head <- $x10
.Ltmp86:
	//DEBUG_VALUE: __list_add:next <- $x10
	//DEBUG_VALUE: list_add_tail:new <- $x9
	//DEBUG_VALUE: __list_add:new <- $x9
	//DEBUG_VALUE: __write_once_size:p <- $x11
	//DEBUG_VALUE: __write_once_size:size <- 8
	//DEBUG_VALUE: __write_once_size:res <- undef
	.loc	139 210 31              // kernel/include/linux/compiler.h:210:31
	str	x9, [x11]
.Ltmp87:
	//DEBUG_VALUE: spin_unlock_irqrestore:flags <- $x1
	.loc	141 372 2               // kernel/include/linux/spinlock.h:372:2
	bl	_raw_spin_unlock_irqrestore
.Ltmp88:
	.loc	2 633 6                 // kernel/block/mas_blk_busy_idle_notify.c:633:6
	ldrb	w8, [x19, #24]
	tbz	w8, #3, .LBB4_4
.Ltmp89:
// %bb.2:
	//DEBUG_VALUE: mas_blk_busyidle_check_bio:lld <- $x19
	//DEBUG_VALUE: blk_busy_count:lld <- $x19
	//DEBUG_VALUE: blk_busy_count:blk_idle <- [DW_OP_plus_uconst 80, DW_OP_stack_value] $x19
	//DEBUG_VALUE: mas_blk_busyidle_check_bio:bio <- $x20
	//DEBUG_VALUE: __read_once_size:res <- undef
	//DEBUG_VALUE: __read_once_size:size <- 4
	//DEBUG_VALUE: __read_once_size:p <- [DW_OP_plus_uconst 288, DW_OP_stack_value] $x19
	.loc	139 183 2               // kernel/include/linux/compiler.h:183:2
	ldr	w8, [x19, #288]
.Ltmp90:
	.loc	2 636 6                 // kernel/block/mas_blk_busy_idle_notify.c:636:6
	cbz	w8, .LBB4_5
.Ltmp91:
.LBB4_3:
	//DEBUG_VALUE: mas_blk_busyidle_check_bio:lld <- $x19
	//DEBUG_VALUE: blk_busy_count:lld <- $x19
	//DEBUG_VALUE: blk_busy_count:blk_idle <- [DW_OP_plus_uconst 80, DW_OP_stack_value] $x19
	//DEBUG_VALUE: atomic_add:i <- 1
	//DEBUG_LABEL: blk_busy_count:inc_iocount
	.file	143 "/mnt/disk/jenkins/ci/workspace/chipset_pipeline_release/opensource/component_code/vendor/huawei/extra/build/build_script/kirin_kernel_release/kernel/arch/arm64/include/asm/atomic_ll_sc.h"
	.loc	143 113 1               // kernel/arch/arm64/include/asm/atomic_ll_sc.h:113:1
	add	x8, x19, #288           // =288
	//APP
	// atomic_add
	prfm	pstl1strm, [x8]
1:	ldxr	w9, [x8]
	add	w9, w9, #1
	stxr	w10, w9, [x8]
	cbnz	w10, 1b
	//NO_APP
.Ltmp92:
	//DEBUG_VALUE: atomic_add:tmp <- undef
	//DEBUG_VALUE: atomic_add:result <- undef
.LBB4_4:
	.loc	2 752 1                 // kernel/block/mas_blk_busy_idle_notify.c:752:1
	ldp	x29, x30, [sp, #32]     // 16-byte Folded Reload
	ldp	x20, x19, [sp, #16]     // 16-byte Folded Reload
	ldr	x21, [sp], #48          // 8-byte Folded Reload
	ret
.LBB4_5:
.Ltmp93:
	//DEBUG_VALUE: mas_blk_busyidle_check_bio:lld <- $x19
	//DEBUG_VALUE: blk_busy_count:lld <- $x19
	//DEBUG_VALUE: blk_busy_count:blk_idle <- [DW_OP_plus_uconst 80, DW_OP_stack_value] $x19
	//DEBUG_VALUE: mas_blk_busyidle_check_bio:bio <- $x20
	.loc	2 639 24                // kernel/block/mas_blk_busy_idle_notify.c:639:24
	add	x20, x19, #296          // =296
.Ltmp94:
	.loc	2 639 2 is_stmt 0       // kernel/block/mas_blk_busy_idle_notify.c:639:2
	mov	x0, x20
	bl	mutex_lock
	.loc	2 640 33 is_stmt 1      // kernel/block/mas_blk_busy_idle_notify.c:640:33
	add	x0, x19, #88            // =88
	.loc	2 640 2 is_stmt 0       // kernel/block/mas_blk_busy_idle_notify.c:640:2
	bl	cancel_delayed_work
.Ltmp95:
	.loc	2 646 16 is_stmt 1      // kernel/block/mas_blk_busy_idle_notify.c:646:16
	ldr	w8, [x19, #360]
.Ltmp96:
	.loc	2 646 6 is_stmt 0       // kernel/block/mas_blk_busy_idle_notify.c:646:6
	cmp	w8, #1                  // =1
	b.ne	.LBB4_7
.Ltmp97:
// %bb.6:
	//DEBUG_VALUE: mas_blk_busyidle_check_bio:lld <- $x19
	//DEBUG_VALUE: blk_busy_count:lld <- $x19
	//DEBUG_VALUE: blk_busy_count:blk_idle <- [DW_OP_plus_uconst 80, DW_OP_stack_value] $x19
	.loc	2 626 42 is_stmt 1      // kernel/block/mas_blk_busy_idle_notify.c:626:42
	add	x0, x19, #208           // =208
	.loc	2 626 2 is_stmt 0       // kernel/block/mas_blk_busy_idle_notify.c:626:2
	mov	x1, xzr
	mov	x2, xzr
	.loc	2 615 23 is_stmt 1      // kernel/block/mas_blk_busy_idle_notify.c:615:23
	str	wzr, [x19, #360]
	.loc	2 626 2                 // kernel/block/mas_blk_busy_idle_notify.c:626:2
	bl	blocking_notifier_call_chain
.Ltmp98:
.LBB4_7:
	//DEBUG_VALUE: mas_blk_busyidle_check_bio:lld <- $x19
	//DEBUG_VALUE: blk_busy_count:lld <- $x19
	//DEBUG_VALUE: blk_busy_count:blk_idle <- [DW_OP_plus_uconst 80, DW_OP_stack_value] $x19
	.loc	2 649 2                 // kernel/block/mas_blk_busy_idle_notify.c:649:2
	mov	x0, x20
	bl	mutex_unlock
	b	.LBB4_3
.Ltmp99:
.Lfunc_end4:
	.size	mas_blk_busyidle_check_bio, .Lfunc_end4-mas_blk_busyidle_check_bio
	.cfi_endproc
                                        // -- End function
	.section	.text.mas_blk_busyidle_check_request_bio,"ax",@progbits
	.hidden	mas_blk_busyidle_check_request_bio // -- Begin function mas_blk_busyidle_check_request_bio
	.globl	mas_blk_busyidle_check_request_bio
	.p2align	2
	.type	mas_blk_busyidle_check_request_bio,@function
mas_blk_busyidle_check_request_bio:     // @mas_blk_busyidle_check_request_bio
.Lfunc_begin5:
	.loc	2 759 0                 // kernel/block/mas_blk_busy_idle_notify.c:759:0
	.cfi_startproc
// %bb.0:
	//DEBUG_VALUE: mas_blk_busyidle_check_request_bio:q <- $x0
	//DEBUG_VALUE: mas_blk_busyidle_check_request_bio:rq <- $x1
	//DEBUG_VALUE: mas_blk_busyidle_check_request_bio:rq <- $x1
	stp	x20, x19, [sp, #-32]!   // 16-byte Folded Spill
	stp	x29, x30, [sp, #16]     // 16-byte Folded Spill
	add	x29, sp, #16            // =16
	.cfi_def_cfa w29, 16
	.cfi_offset w30, -8
	.cfi_offset w29, -16
	.cfi_offset w19, -24
	.cfi_offset w20, -32
.Ltmp100:
	.loc	2 760 24 prologue_end   // kernel/block/mas_blk_busy_idle_notify.c:760:24
	ldr	x19, [x1, #120]
.Ltmp101:
	//DEBUG_VALUE: mas_blk_busyidle_check_request_bio:bio <- $x19
	.loc	2 762 6                 // kernel/block/mas_blk_busy_idle_notify.c:762:6
	cbz	x19, .LBB5_4
.Ltmp102:
// %bb.1:
	//DEBUG_VALUE: mas_blk_busyidle_check_request_bio:bio <- $x19
	//DEBUG_VALUE: mas_blk_busyidle_check_request_bio:rq <- $x1
	//DEBUG_VALUE: mas_blk_busyidle_check_request_bio:q <- $x0
	.loc	2 0 6 is_stmt 0         // kernel/block/mas_blk_busy_idle_notify.c:0:6
	mov	x20, x0
.Ltmp103:
	//DEBUG_VALUE: mas_blk_busyidle_check_request_bio:q <- $x20
.LBB5_2:                                // =>This Inner Loop Header: Depth=1
	//DEBUG_VALUE: mas_blk_busyidle_check_request_bio:q <- $x20
	//DEBUG_VALUE: mas_blk_busyidle_check_request_bio:bio <- $x19
	//DEBUG_VALUE: mas_blk_busyidle_check_request_bio:rq <- $x1
	//DEBUG_VALUE: mas_blk_busyidle_check_request_bio:bio <- $x19
	.loc	2 764 4 is_stmt 1       // kernel/block/mas_blk_busy_idle_notify.c:764:4
	mov	x0, x20
	mov	x1, x19
.Ltmp104:
	bl	mas_blk_busyidle_check_bio
	.loc	2 765 15                // kernel/block/mas_blk_busy_idle_notify.c:765:15
	ldr	x19, [x19]
.Ltmp105:
	//DEBUG_VALUE: mas_blk_busyidle_check_request_bio:bio <- $x19
	.loc	2 766 3                 // kernel/block/mas_blk_busy_idle_notify.c:766:3
	cbnz	x19, .LBB5_2
.Ltmp106:
// %bb.3:
	//DEBUG_VALUE: mas_blk_busyidle_check_request_bio:q <- $x20
	//DEBUG_VALUE: mas_blk_busyidle_check_request_bio:bio <- $x19
	.loc	2 0 3 is_stmt 0         // kernel/block/mas_blk_busy_idle_notify.c:0:3
	orr	w0, wzr, #0x1
	b	.LBB5_5
.Ltmp107:
.LBB5_4:
	//DEBUG_VALUE: mas_blk_busyidle_check_request_bio:bio <- $x19
	//DEBUG_VALUE: mas_blk_busyidle_check_request_bio:rq <- $x1
	//DEBUG_VALUE: mas_blk_busyidle_check_request_bio:q <- $x0
	mov	w0, wzr
.Ltmp108:
.LBB5_5:
	//DEBUG_VALUE: mas_blk_busyidle_check_request_bio:bio <- $x19
	.loc	2 770 1 is_stmt 1       // kernel/block/mas_blk_busy_idle_notify.c:770:1
	ldp	x29, x30, [sp, #16]     // 16-byte Folded Reload
	ldp	x20, x19, [sp], #32     // 16-byte Folded Reload
.Ltmp109:
	ret
.Ltmp110:
.Lfunc_end5:
	.size	mas_blk_busyidle_check_request_bio, .Lfunc_end5-mas_blk_busyidle_check_request_bio
	.cfi_endproc
                                        // -- End function
	.section	.text.mas_blk_busyidle_end_rq,"ax",@progbits
	.hidden	mas_blk_busyidle_end_rq // -- Begin function mas_blk_busyidle_end_rq
	.globl	mas_blk_busyidle_end_rq
	.p2align	2
	.type	mas_blk_busyidle_end_rq,@function
mas_blk_busyidle_end_rq:                // @mas_blk_busyidle_end_rq
.Lfunc_begin6:
	.loc	2 773 0                 // kernel/block/mas_blk_busy_idle_notify.c:773:0
	.cfi_startproc
// %bb.0:
	//DEBUG_VALUE: mas_blk_busyidle_end_rq:rq <- $x0
	//DEBUG_VALUE: mas_blk_busyidle_end_rq:error <- $w1
	stp	x22, x21, [sp, #-48]!   // 16-byte Folded Spill
	stp	x20, x19, [sp, #16]     // 16-byte Folded Spill
	stp	x29, x30, [sp, #32]     // 16-byte Folded Spill
	add	x29, sp, #32            // =32
	.cfi_def_cfa w29, 16
	.cfi_offset w30, -8
	.cfi_offset w29, -16
	.cfi_offset w19, -24
	.cfi_offset w20, -32
	.cfi_offset w21, -40
	.cfi_offset w22, -48
	mov	x19, x0
.Ltmp111:
	//DEBUG_VALUE: mas_blk_busyidle_end_rq:rq <- $x19
	.loc	2 774 48 prologue_end   // kernel/block/mas_blk_busy_idle_notify.c:774:48
	ldr	x0, [x0, #64]
	mov	w20, w1
.Ltmp112:
	//DEBUG_VALUE: mas_blk_busyidle_end_rq:error <- $w20
	.loc	2 774 28 is_stmt 0      // kernel/block/mas_blk_busy_idle_notify.c:774:28
	bl	mas_blk_get_lld
.Ltmp113:
	.loc	2 700 6 is_stmt 1       // kernel/block/mas_blk_busy_idle_notify.c:700:6
	ldr	x8, [x0, #376]
.Ltmp114:
	.loc	2 774 28                // kernel/block/mas_blk_busy_idle_notify.c:774:28
	mov	x21, x0
.Ltmp115:
	//DEBUG_VALUE: mas_blk_remove_rq_from_counted_list:lld <- $x21
	//DEBUG_VALUE: mas_blk_busyidle_end_rq:lld <- $x21
	//DEBUG_VALUE: spinlock_check:lock <- [DW_OP_plus_uconst 416, DW_OP_stack_value] $x21
	//DEBUG_VALUE: spin_unlock_irqrestore:lock <- [DW_OP_plus_uconst 416, DW_OP_stack_value] $x21
	//DEBUG_VALUE: blk_idle_count:lld <- $x21
	//DEBUG_VALUE: blk_idle_count:blk_idle <- [DW_OP_plus_uconst 80, DW_OP_stack_value] $x21
	//DEBUG_VALUE: atomic_sub_return:v <- [DW_OP_plus_uconst 288, DW_OP_stack_value] $x21
	//DEBUG_VALUE: blk_lld_idle_notify:lld <- $x21
	//DEBUG_VALUE: mas_blk_remove_rq_from_counted_list:rq <- $x19
	.loc	2 700 6                 // kernel/block/mas_blk_busy_idle_notify.c:700:6
	cbz	x8, .LBB6_2
.Ltmp116:
// %bb.1:
	//DEBUG_VALUE: mas_blk_remove_rq_from_counted_list:rq <- $x19
	//DEBUG_VALUE: spin_unlock_irqrestore:lock <- [DW_OP_plus_uconst 416, DW_OP_stack_value] $x21
	//DEBUG_VALUE: spinlock_check:lock <- [DW_OP_plus_uconst 416, DW_OP_stack_value] $x21
	//DEBUG_VALUE: mas_blk_busyidle_end_rq:lld <- $x21
	//DEBUG_VALUE: mas_blk_remove_rq_from_counted_list:lld <- $x21
	//DEBUG_VALUE: mas_blk_busyidle_end_rq:error <- $w20
	//DEBUG_VALUE: mas_blk_busyidle_end_rq:rq <- $x19
	.loc	141 306 16              // kernel/include/linux/spinlock.h:306:16
	add	x22, x21, #416          // =416
.Ltmp117:
	.loc	2 707 2                 // kernel/block/mas_blk_busy_idle_notify.c:707:2
	mov	x0, x22
	bl	_raw_spin_lock_irqsave
.Ltmp118:
	.loc	2 708 25                // kernel/block/mas_blk_busy_idle_notify.c:708:25
	ldr	x8, [x21, #376]
.Ltmp119:
	.loc	2 707 2                 // kernel/block/mas_blk_busy_idle_notify.c:707:2
	mov	x1, x0
.Ltmp120:
	//DEBUG_VALUE: mas_blk_remove_rq_from_counted_list:flags <- $x1
	.loc	2 709 21                // kernel/block/mas_blk_busy_idle_notify.c:709:21
	add	x10, x19, #464          // =464
.Ltmp121:
	//DEBUG_VALUE: __list_del_entry:entry <- $x10
	//DEBUG_VALUE: list_del_init:entry <- $x10
	//DEBUG_VALUE: __list_del:prev <- $x9
	//DEBUG_VALUE: __list_del:next <- $x8
	.loc	141 372 2               // kernel/include/linux/spinlock.h:372:2
	mov	x0, x22
.Ltmp122:
	.loc	2 708 25                // kernel/block/mas_blk_busy_idle_notify.c:708:25
	sub	x8, x8, #1              // =1
.Ltmp123:
	str	x8, [x21, #376]
.Ltmp124:
	.loc	142 120 33              // kernel/include/linux/list.h:120:33
	ldp	x8, x9, [x19, #464]
.Ltmp125:
	.loc	142 105 13              // kernel/include/linux/list.h:105:13
	str	x9, [x8, #8]
.Ltmp126:
	//DEBUG_VALUE: __write_once_size:p <- $x9
	//DEBUG_VALUE: __write_once_size:size <- 8
	//DEBUG_VALUE: __write_once_size:res <- undef
	.loc	139 210 31              // kernel/include/linux/compiler.h:210:31
	str	x8, [x9]
.Ltmp127:
	//DEBUG_VALUE: __write_once_size:p <- $x10
	//DEBUG_VALUE: __write_once_size:size <- 8
	//DEBUG_VALUE: __write_once_size:res <- undef
	//DEBUG_VALUE: INIT_LIST_HEAD:list <- $x10
	.loc	139 210 31 is_stmt 0    // kernel/include/linux/compiler.h:210:31
	str	x10, [x19, #464]
.Ltmp128:
	.loc	142 29 13 is_stmt 1     // kernel/include/linux/list.h:29:13
	str	x10, [x19, #472]
.Ltmp129:
	//DEBUG_VALUE: spin_unlock_irqrestore:flags <- $x1
	.loc	141 372 2               // kernel/include/linux/spinlock.h:372:2
	bl	_raw_spin_unlock_irqrestore
.Ltmp130:
.LBB6_2:
	//DEBUG_VALUE: mas_blk_busyidle_end_rq:lld <- $x21
	//DEBUG_VALUE: mas_blk_busyidle_end_rq:error <- $w20
	//DEBUG_VALUE: mas_blk_busyidle_end_rq:rq <- $x19
	.loc	2 596 6                 // kernel/block/mas_blk_busy_idle_notify.c:596:6
	ldrb	w8, [x21, #24]
	tbz	w8, #3, .LBB6_6
.Ltmp131:
// %bb.3:
	//DEBUG_VALUE: mas_blk_busyidle_end_rq:lld <- $x21
	//DEBUG_VALUE: mas_blk_busyidle_end_rq:error <- $w20
	//DEBUG_VALUE: mas_blk_busyidle_end_rq:rq <- $x19
	.loc	2 599 16                // kernel/block/mas_blk_busy_idle_notify.c:599:16
	ldrb	w8, [x21, #80]
.Ltmp132:
	.loc	2 599 6 is_stmt 0       // kernel/block/mas_blk_busy_idle_notify.c:599:6
	cbnz	w8, .LBB6_6
.Ltmp133:
// %bb.4:
	//DEBUG_VALUE: mas_blk_busyidle_end_rq:lld <- $x21
	//DEBUG_VALUE: mas_blk_busyidle_end_rq:error <- $w20
	//DEBUG_VALUE: mas_blk_busyidle_end_rq:rq <- $x19
	//DEBUG_VALUE: __read_once_size:res <- undef
	//DEBUG_VALUE: __read_once_size:size <- 4
	//DEBUG_VALUE: __read_once_size:p <- [DW_OP_plus_uconst 288, DW_OP_stack_value] $x21
	.loc	139 183 2 is_stmt 1     // kernel/include/linux/compiler.h:183:2
	ldr	w8, [x21, #288]
.Ltmp134:
	.loc	2 601 6                 // kernel/block/mas_blk_busy_idle_notify.c:601:6
	cbz	w8, .LBB6_9
.Ltmp135:
// %bb.5:
	//DEBUG_VALUE: mas_blk_busyidle_end_rq:lld <- $x21
	//DEBUG_VALUE: mas_blk_busyidle_end_rq:error <- $w20
	//DEBUG_VALUE: mas_blk_busyidle_end_rq:rq <- $x19
	//DEBUG_VALUE: atomic_sub_return:i <- 1
	.loc	143 114 1               // kernel/arch/arm64/include/asm/atomic_ll_sc.h:114:1
	add	x8, x21, #288           // =288
	//APP
	// atomic_sub_return
	prfm	pstl1strm, [x8]
1:	ldxr	w9, [x8]
	sub	w9, w9, #1
	stlxr	w10, w9, [x8]
	cbnz	w10, 1b
	dmb ish
	//NO_APP
.Ltmp136:
	//DEBUG_VALUE: atomic_sub_return:tmp <- undef
	//DEBUG_VALUE: atomic_sub_return:result <- $w9
	.loc	2 609 6                 // kernel/block/mas_blk_busy_idle_notify.c:609:6
	cbz	w9, .LBB6_10
.Ltmp137:
.LBB6_6:
	//DEBUG_VALUE: mas_blk_busyidle_end_rq:lld <- $x21
	//DEBUG_VALUE: mas_blk_busyidle_end_rq:error <- $w20
	//DEBUG_VALUE: mas_blk_busyidle_end_rq:rq <- $x19
	.loc	2 779 18                // kernel/block/mas_blk_busy_idle_notify.c:779:18
	ldr	x8, [x19, #312]
.Ltmp138:
	.loc	2 779 6 is_stmt 0       // kernel/block/mas_blk_busy_idle_notify.c:779:6
	cbz	x8, .LBB6_8
.Ltmp139:
.LBB6_7:
	//DEBUG_VALUE: mas_blk_busyidle_end_rq:error <- $w20
	//DEBUG_VALUE: mas_blk_busyidle_end_rq:rq <- $x19
	//DEBUG_VALUE: mas_blk_busyidle_end_rq:error <- $w20
	.loc	2 780 3 is_stmt 1       // kernel/block/mas_blk_busy_idle_notify.c:780:3
	mov	x0, x19
	mov	w1, w20
	blr	x8
.Ltmp140:
.LBB6_8:
	//DEBUG_VALUE: mas_blk_busyidle_end_rq:error <- $w20
	//DEBUG_VALUE: mas_blk_busyidle_end_rq:rq <- $x19
	.loc	2 781 1                 // kernel/block/mas_blk_busy_idle_notify.c:781:1
	ldp	x29, x30, [sp, #32]     // 16-byte Folded Reload
	ldp	x20, x19, [sp, #16]     // 16-byte Folded Reload
.Ltmp141:
	ldp	x22, x21, [sp], #48     // 16-byte Folded Reload
	ret
.LBB6_9:
.Ltmp142:
	//DEBUG_VALUE: mas_blk_busyidle_end_rq:lld <- $x21
	//DEBUG_VALUE: mas_blk_busyidle_end_rq:error <- $w20
	//DEBUG_VALUE: mas_blk_busyidle_end_rq:rq <- $x19
	.loc	2 602 3                 // kernel/block/mas_blk_busy_idle_notify.c:602:3
	adrp	x0, .L.str.12
	adrp	x1, .L__func__.blk_idle_count
	add	x0, x0, :lo12:.L.str.12
	add	x1, x1, :lo12:.L__func__.blk_idle_count
	bl	printk
.Ltmp143:
	.loc	2 779 18                // kernel/block/mas_blk_busy_idle_notify.c:779:18
	ldr	x8, [x19, #312]
.Ltmp144:
	.loc	2 779 6 is_stmt 0       // kernel/block/mas_blk_busy_idle_notify.c:779:6
	cbnz	x8, .LBB6_7
	b	.LBB6_8
.Ltmp145:
.LBB6_10:
	//DEBUG_VALUE: mas_blk_busyidle_end_rq:lld <- $x21
	//DEBUG_VALUE: mas_blk_busyidle_end_rq:error <- $w20
	//DEBUG_VALUE: mas_blk_busyidle_end_rq:rq <- $x19
	.loc	2 441 6 is_stmt 1       // kernel/block/mas_blk_busy_idle_notify.c:441:6
	ldr	w8, [x21]
.Ltmp146:
	.loc	2 441 6 is_stmt 0       // kernel/block/mas_blk_busy_idle_notify.c:441:6
	cmp	w8, #122                // =122
	b.ne	.LBB6_6
.Ltmp147:
// %bb.11:
	//DEBUG_VALUE: mas_blk_busyidle_end_rq:lld <- $x21
	//DEBUG_VALUE: mas_blk_busyidle_end_rq:error <- $w20
	//DEBUG_VALUE: mas_blk_busyidle_end_rq:rq <- $x19
	.loc	2 442 22 is_stmt 1      // kernel/block/mas_blk_busy_idle_notify.c:442:22
	adrp	x8, blk_idle_notify_workqueue
	.loc	2 445 35                // kernel/block/mas_blk_busy_idle_notify.c:445:35
	ldr	w0, [x21, #184]
	.loc	2 442 22                // kernel/block/mas_blk_busy_idle_notify.c:442:22
	ldr	x22, [x8, :lo12:blk_idle_notify_workqueue]
	.loc	2 444 6                 // kernel/block/mas_blk_busy_idle_notify.c:444:6
	add	x21, x21, #88           // =88
.Ltmp148:
	//DEBUG_VALUE: msecs_to_jiffies:m <- $w0
	.loc	140 370 10              // kernel/include/linux/jiffies.h:370:10
	bl	__msecs_to_jiffies
.Ltmp149:
	mov	x3, x0
.Ltmp150:
	//DEBUG_VALUE: queue_delayed_work:delay <- $x3
	//DEBUG_VALUE: queue_delayed_work:dwork <- $x21
	//DEBUG_VALUE: queue_delayed_work:wq <- $x22
	.loc	20 506 9                // kernel/include/linux/workqueue.h:506:9
	orr	w0, wzr, #0x8
	mov	x1, x22
	mov	x2, x21
	bl	queue_delayed_work_on
.Ltmp151:
	.loc	2 779 18                // kernel/block/mas_blk_busy_idle_notify.c:779:18
	ldr	x8, [x19, #312]
.Ltmp152:
	.loc	2 779 6 is_stmt 0       // kernel/block/mas_blk_busy_idle_notify.c:779:6
	cbnz	x8, .LBB6_7
	b	.LBB6_8
.Ltmp153:
.Lfunc_end6:
	.size	mas_blk_busyidle_end_rq, .Lfunc_end6-mas_blk_busyidle_end_rq
	.cfi_endproc
                                        // -- End function
	.section	.text.mas_blk_busyidle_check_execute_request,"ax",@progbits
	.hidden	mas_blk_busyidle_check_execute_request // -- Begin function mas_blk_busyidle_check_execute_request
	.globl	mas_blk_busyidle_check_execute_request
	.p2align	2
	.type	mas_blk_busyidle_check_execute_request,@function
mas_blk_busyidle_check_execute_request: // @mas_blk_busyidle_check_execute_request
.Lfunc_begin7:
	.loc	2 789 0 is_stmt 1       // kernel/block/mas_blk_busy_idle_notify.c:789:0
	.cfi_startproc
// %bb.0:
	//DEBUG_VALUE: mas_blk_busyidle_check_execute_request:q <- $x0
	//DEBUG_VALUE: mas_blk_busyidle_check_execute_request:rq <- $x1
	//DEBUG_VALUE: mas_blk_busyidle_check_execute_request:done <- $x2
	//DEBUG_VALUE: mas_blk_busyidle_check_request_bio:q <- $x0
	//DEBUG_VALUE: mas_blk_busyidle_check_request_bio:rq <- $x1
	stp	x22, x21, [sp, #-48]!   // 16-byte Folded Spill
	stp	x20, x19, [sp, #16]     // 16-byte Folded Spill
	stp	x29, x30, [sp, #32]     // 16-byte Folded Spill
	add	x29, sp, #32            // =32
	.cfi_def_cfa w29, 16
	.cfi_offset w30, -8
	.cfi_offset w29, -16
	.cfi_offset w19, -24
	.cfi_offset w20, -32
	.cfi_offset w21, -40
	.cfi_offset w22, -48
.Ltmp154:
	.loc	2 760 24 prologue_end   // kernel/block/mas_blk_busy_idle_notify.c:760:24
	ldr	x21, [x1, #120]
.Ltmp155:
	//DEBUG_VALUE: mas_blk_busyidle_check_request_bio:bio <- $x21
	.loc	2 0 24 is_stmt 0        // kernel/block/mas_blk_busy_idle_notify.c:0:24
	mov	x19, x2
	mov	x20, x1
.Ltmp156:
	//DEBUG_VALUE: mas_blk_busyidle_check_request_bio:rq <- $x20
	//DEBUG_VALUE: mas_blk_busyidle_check_execute_request:done <- $x19
	//DEBUG_VALUE: mas_blk_busyidle_check_execute_request:rq <- $x20
	.loc	2 762 6 is_stmt 1       // kernel/block/mas_blk_busy_idle_notify.c:762:6
	cbz	x21, .LBB7_4
.Ltmp157:
// %bb.1:
	//DEBUG_VALUE: mas_blk_busyidle_check_execute_request:rq <- $x20
	//DEBUG_VALUE: mas_blk_busyidle_check_execute_request:done <- $x19
	//DEBUG_VALUE: mas_blk_busyidle_check_request_bio:rq <- $x20
	//DEBUG_VALUE: mas_blk_busyidle_check_request_bio:bio <- $x21
	//DEBUG_VALUE: mas_blk_busyidle_check_request_bio:q <- $x0
	//DEBUG_VALUE: mas_blk_busyidle_check_execute_request:q <- $x0
	.loc	2 0 6 is_stmt 0         // kernel/block/mas_blk_busy_idle_notify.c:0:6
	mov	x22, x0
.Ltmp158:
	//DEBUG_VALUE: mas_blk_busyidle_check_execute_request:q <- $x22
	//DEBUG_VALUE: mas_blk_busyidle_check_request_bio:q <- $x22
.LBB7_2:                                // =>This Inner Loop Header: Depth=1
	//DEBUG_VALUE: mas_blk_busyidle_check_request_bio:q <- $x22
	//DEBUG_VALUE: mas_blk_busyidle_check_execute_request:q <- $x22
	//DEBUG_VALUE: mas_blk_busyidle_check_execute_request:rq <- $x20
	//DEBUG_VALUE: mas_blk_busyidle_check_execute_request:done <- $x19
	//DEBUG_VALUE: mas_blk_busyidle_check_request_bio:rq <- $x20
	//DEBUG_VALUE: mas_blk_busyidle_check_request_bio:bio <- $x21
	//DEBUG_VALUE: mas_blk_busyidle_check_request_bio:bio <- $x21
	.loc	2 764 4 is_stmt 1       // kernel/block/mas_blk_busy_idle_notify.c:764:4
	mov	x0, x22
	mov	x1, x21
	bl	mas_blk_busyidle_check_bio
	.loc	2 765 15                // kernel/block/mas_blk_busy_idle_notify.c:765:15
	ldr	x21, [x21]
.Ltmp159:
	//DEBUG_VALUE: mas_blk_busyidle_check_request_bio:bio <- $x21
	.loc	2 766 3                 // kernel/block/mas_blk_busy_idle_notify.c:766:3
	cbnz	x21, .LBB7_2
.Ltmp160:
// %bb.3:
	//DEBUG_VALUE: mas_blk_busyidle_check_execute_request:q <- $x22
	//DEBUG_VALUE: mas_blk_busyidle_check_execute_request:rq <- $x20
	//DEBUG_VALUE: mas_blk_busyidle_check_execute_request:done <- $x19
	.loc	2 798 7                 // kernel/block/mas_blk_busy_idle_notify.c:798:7
	add	x8, x20, #584           // =584
	b	.LBB7_8
.Ltmp161:
.LBB7_4:
	//DEBUG_VALUE: mas_blk_busyidle_check_execute_request:rq <- $x20
	//DEBUG_VALUE: mas_blk_busyidle_check_execute_request:done <- $x19
	//DEBUG_VALUE: mas_blk_busyidle_check_execute_request:q <- $x0
	.loc	2 791 49                // kernel/block/mas_blk_busy_idle_notify.c:791:49
	ldr	x0, [x20, #64]
.Ltmp162:
	.loc	2 791 29 is_stmt 0      // kernel/block/mas_blk_busy_idle_notify.c:791:29
	bl	mas_blk_get_lld
.Ltmp163:
	.loc	141 306 16 is_stmt 1    // kernel/include/linux/spinlock.h:306:16
	add	x22, x0, #416           // =416
.Ltmp164:
	.loc	2 791 29                // kernel/block/mas_blk_busy_idle_notify.c:791:29
	mov	x21, x0
.Ltmp165:
	//DEBUG_VALUE: mas_blk_add_rq_to_counted_list:rq <- $x20
	//DEBUG_VALUE: spinlock_check:lock <- [DW_OP_plus_uconst 416, DW_OP_stack_value] $x21
	//DEBUG_VALUE: mas_blk_add_rq_to_counted_list:lld <- $x21
	//DEBUG_VALUE: lld <- $x21
	//DEBUG_VALUE: blk_idle_to_busy:blk_idle <- [DW_OP_plus_uconst 80, DW_OP_stack_value] $x21
	//DEBUG_VALUE: atomic_add:v <- [DW_OP_plus_uconst 288, DW_OP_stack_value] $x21
	.loc	2 689 2                 // kernel/block/mas_blk_busy_idle_notify.c:689:2
	mov	x0, x22
	bl	_raw_spin_lock_irqsave
.Ltmp166:
	.loc	2 690 25                // kernel/block/mas_blk_busy_idle_notify.c:690:25
	ldr	x8, [x21, #376]
.Ltmp167:
	.loc	142 93 24               // kernel/include/linux/list.h:93:24
	ldr	x11, [x21, #408]
.Ltmp168:
	//DEBUG_VALUE: __list_add:prev <- $x11
	//DEBUG_VALUE: __list_add:next <- $x10
	//DEBUG_VALUE: __list_add:new <- $x9
	.loc	2 689 2                 // kernel/block/mas_blk_busy_idle_notify.c:689:2
	mov	x1, x0
.Ltmp169:
	//DEBUG_VALUE: mas_blk_add_rq_to_counted_list:flags <- $x1
	.loc	2 691 21                // kernel/block/mas_blk_busy_idle_notify.c:691:21
	add	x9, x20, #464           // =464
.Ltmp170:
	.loc	2 691 46 is_stmt 0      // kernel/block/mas_blk_busy_idle_notify.c:691:46
	add	x10, x21, #400          // =400
.Ltmp171:
	//DEBUG_VALUE: list_add_tail:head <- $x10
	//DEBUG_VALUE: list_add_tail:new <- $x9
	.loc	2 690 25 is_stmt 1      // kernel/block/mas_blk_busy_idle_notify.c:690:25
	add	x8, x8, #1              // =1
.Ltmp172:
	.loc	141 372 2               // kernel/include/linux/spinlock.h:372:2
	mov	x0, x22
.Ltmp173:
	.loc	142 63 13               // kernel/include/linux/list.h:63:13
	str	x9, [x21, #408]
.Ltmp174:
	.loc	2 690 25                // kernel/block/mas_blk_busy_idle_notify.c:690:25
	str	x8, [x21, #376]
.Ltmp175:
	.loc	142 64 12               // kernel/include/linux/list.h:64:12
	stp	x10, x11, [x20, #464]
	//DEBUG_VALUE: __list_add:prev <- $x11
	//DEBUG_VALUE: list_add_tail:head <- $x10
.Ltmp176:
	//DEBUG_VALUE: __list_add:next <- $x10
	//DEBUG_VALUE: list_add_tail:new <- $x9
	//DEBUG_VALUE: __list_add:new <- $x9
	//DEBUG_VALUE: __write_once_size:p <- $x11
	//DEBUG_VALUE: __write_once_size:size <- 8
	//DEBUG_VALUE: __write_once_size:res <- undef
	.loc	139 210 31              // kernel/include/linux/compiler.h:210:31
	str	x9, [x11]
.Ltmp177:
	//DEBUG_VALUE: spin_unlock_irqrestore:flags <- $x1
	//DEBUG_VALUE: spin_unlock_irqrestore:lock <- [DW_OP_plus_uconst 416, DW_OP_stack_value] $x21
	.loc	141 372 2               // kernel/include/linux/spinlock.h:372:2
	bl	_raw_spin_unlock_irqrestore
.Ltmp178:
	//DEBUG_VALUE: blk_busy_count:lld <- $x21
	//DEBUG_VALUE: blk_busy_count:blk_idle <- [DW_OP_plus_uconst 80, DW_OP_stack_value] $x21
	.loc	2 633 6                 // kernel/block/mas_blk_busy_idle_notify.c:633:6
	ldrb	w8, [x21, #24]
	tbz	w8, #3, .LBB7_7
.Ltmp179:
// %bb.5:
	//DEBUG_VALUE: blk_busy_count:blk_idle <- [DW_OP_plus_uconst 80, DW_OP_stack_value] $x21
	//DEBUG_VALUE: blk_busy_count:lld <- $x21
	//DEBUG_VALUE: lld <- $x21
	//DEBUG_VALUE: mas_blk_busyidle_check_execute_request:rq <- $x20
	//DEBUG_VALUE: mas_blk_busyidle_check_execute_request:done <- $x19
	//DEBUG_VALUE: __read_once_size:res <- undef
	//DEBUG_VALUE: __read_once_size:size <- 4
	//DEBUG_VALUE: __read_once_size:p <- [DW_OP_plus_uconst 288, DW_OP_stack_value] $x21
	.loc	139 183 2               // kernel/include/linux/compiler.h:183:2
	ldr	w8, [x21, #288]
.Ltmp180:
	.loc	2 636 6                 // kernel/block/mas_blk_busy_idle_notify.c:636:6
	cbz	w8, .LBB7_9
.Ltmp181:
.LBB7_6:
	//DEBUG_VALUE: blk_busy_count:blk_idle <- [DW_OP_plus_uconst 80, DW_OP_stack_value] $x21
	//DEBUG_VALUE: blk_busy_count:lld <- $x21
	//DEBUG_VALUE: lld <- $x21
	//DEBUG_VALUE: mas_blk_busyidle_check_execute_request:rq <- $x20
	//DEBUG_VALUE: mas_blk_busyidle_check_execute_request:done <- $x19
	//DEBUG_VALUE: atomic_add:i <- 1
	//DEBUG_LABEL: blk_busy_count:inc_iocount
	.loc	143 113 1               // kernel/arch/arm64/include/asm/atomic_ll_sc.h:113:1
	add	x8, x21, #288           // =288
	//APP
	// atomic_add
	prfm	pstl1strm, [x8]
1:	ldxr	w9, [x8]
	add	w9, w9, #1
	stxr	w10, w9, [x8]
	cbnz	w10, 1b
	//NO_APP
.Ltmp182:
	//DEBUG_VALUE: atomic_add:tmp <- undef
	//DEBUG_VALUE: atomic_add:result <- undef
.LBB7_7:
	//DEBUG_VALUE: lld <- $x21
	//DEBUG_VALUE: mas_blk_busyidle_check_execute_request:rq <- $x20
	//DEBUG_VALUE: mas_blk_busyidle_check_execute_request:done <- $x19
	.loc	2 795 14                // kernel/block/mas_blk_busy_idle_notify.c:795:14
	adrp	x8, __cfi_mas_blk_busyidle_end_rq
	add	x8, x8, :lo12:__cfi_mas_blk_busyidle_end_rq
	str	x8, [x20, #584]
	.loc	2 796 15                // kernel/block/mas_blk_busy_idle_notify.c:796:15
	add	x8, x20, #312           // =312
.Ltmp183:
.LBB7_8:
	//DEBUG_VALUE: mas_blk_busyidle_check_execute_request:rq <- $x20
	//DEBUG_VALUE: mas_blk_busyidle_check_execute_request:done <- $x19
	.loc	2 0 0 is_stmt 0         // kernel/block/mas_blk_busy_idle_notify.c:0:0
	str	x19, [x8]
.Ltmp184:
	.loc	2 800 1 is_stmt 1       // kernel/block/mas_blk_busy_idle_notify.c:800:1
	ldp	x29, x30, [sp, #32]     // 16-byte Folded Reload
	ldp	x20, x19, [sp, #16]     // 16-byte Folded Reload
.Ltmp185:
	ldp	x22, x21, [sp], #48     // 16-byte Folded Reload
	ret
.LBB7_9:
.Ltmp186:
	//DEBUG_VALUE: blk_busy_count:blk_idle <- [DW_OP_plus_uconst 80, DW_OP_stack_value] $x21
	//DEBUG_VALUE: blk_busy_count:lld <- $x21
	//DEBUG_VALUE: lld <- $x21
	//DEBUG_VALUE: mas_blk_busyidle_check_execute_request:rq <- $x20
	//DEBUG_VALUE: mas_blk_busyidle_check_execute_request:done <- $x19
	.loc	2 639 24                // kernel/block/mas_blk_busy_idle_notify.c:639:24
	add	x22, x21, #296          // =296
	.loc	2 639 2 is_stmt 0       // kernel/block/mas_blk_busy_idle_notify.c:639:2
	mov	x0, x22
	bl	mutex_lock
	.loc	2 640 33 is_stmt 1      // kernel/block/mas_blk_busy_idle_notify.c:640:33
	add	x0, x21, #88            // =88
	.loc	2 640 2 is_stmt 0       // kernel/block/mas_blk_busy_idle_notify.c:640:2
	bl	cancel_delayed_work
.Ltmp187:
	.loc	2 646 16 is_stmt 1      // kernel/block/mas_blk_busy_idle_notify.c:646:16
	ldr	w8, [x21, #360]
.Ltmp188:
	.loc	2 646 6 is_stmt 0       // kernel/block/mas_blk_busy_idle_notify.c:646:6
	cmp	w8, #1                  // =1
	b.ne	.LBB7_11
.Ltmp189:
// %bb.10:
	//DEBUG_VALUE: blk_busy_count:blk_idle <- [DW_OP_plus_uconst 80, DW_OP_stack_value] $x21
	//DEBUG_VALUE: blk_busy_count:lld <- $x21
	//DEBUG_VALUE: lld <- $x21
	//DEBUG_VALUE: mas_blk_busyidle_check_execute_request:rq <- $x20
	//DEBUG_VALUE: mas_blk_busyidle_check_execute_request:done <- $x19
	.loc	2 626 42 is_stmt 1      // kernel/block/mas_blk_busy_idle_notify.c:626:42
	add	x0, x21, #208           // =208
	.loc	2 626 2 is_stmt 0       // kernel/block/mas_blk_busy_idle_notify.c:626:2
	mov	x1, xzr
	mov	x2, xzr
	.loc	2 615 23 is_stmt 1      // kernel/block/mas_blk_busy_idle_notify.c:615:23
	str	wzr, [x21, #360]
	.loc	2 626 2                 // kernel/block/mas_blk_busy_idle_notify.c:626:2
	bl	blocking_notifier_call_chain
.Ltmp190:
.LBB7_11:
	//DEBUG_VALUE: blk_busy_count:blk_idle <- [DW_OP_plus_uconst 80, DW_OP_stack_value] $x21
	//DEBUG_VALUE: blk_busy_count:lld <- $x21
	//DEBUG_VALUE: lld <- $x21
	//DEBUG_VALUE: mas_blk_busyidle_check_execute_request:rq <- $x20
	//DEBUG_VALUE: mas_blk_busyidle_check_execute_request:done <- $x19
	.loc	2 649 2                 // kernel/block/mas_blk_busy_idle_notify.c:649:2
	mov	x0, x22
	bl	mutex_unlock
	b	.LBB7_6
.Ltmp191:
.Lfunc_end7:
	.size	mas_blk_busyidle_check_execute_request, .Lfunc_end7-mas_blk_busyidle_check_execute_request
	.cfi_endproc
                                        // -- End function
	.section	.text.mas_blk_busyidle_check_bio_endio,"ax",@progbits
	.hidden	mas_blk_busyidle_check_bio_endio // -- Begin function mas_blk_busyidle_check_bio_endio
	.globl	mas_blk_busyidle_check_bio_endio
	.p2align	2
	.type	mas_blk_busyidle_check_bio_endio,@function
mas_blk_busyidle_check_bio_endio:       // @mas_blk_busyidle_check_bio_endio
.Lfunc_begin8:
	.loc	2 806 0                 // kernel/block/mas_blk_busy_idle_notify.c:806:0
	.cfi_startproc
// %bb.0:
	//DEBUG_VALUE: mas_blk_busyidle_check_bio_endio:bio <- $x0
	str	x21, [sp, #-48]!        // 8-byte Folded Spill
	stp	x20, x19, [sp, #16]     // 16-byte Folded Spill
	stp	x29, x30, [sp, #32]     // 16-byte Folded Spill
	add	x29, sp, #32            // =32
	.cfi_def_cfa w29, 16
	.cfi_offset w30, -8
	.cfi_offset w29, -16
	.cfi_offset w19, -24
	.cfi_offset w20, -32
	.cfi_offset w21, -48
.Ltmp192:
	.loc	2 808 8 prologue_end    // kernel/block/mas_blk_busy_idle_notify.c:808:8
	ldr	x8, [x0, #8]
	.loc	2 808 3 is_stmt 0       // kernel/block/mas_blk_busy_idle_notify.c:808:3
	add	x9, x0, #104            // =104
	mov	x20, x0
.Ltmp193:
	//DEBUG_VALUE: mas_blk_busyidle_check_bio_endio:bio <- $x20
	add	x10, x8, #1088          // =1088
	cmp	x8, #0                  // =0
	csel	x8, x9, x10, eq
	ldr	x0, [x8]
.Ltmp194:
	//DEBUG_VALUE: mas_blk_busyidle_check_bio_endio:q <- $x0
	.loc	2 809 28 is_stmt 1      // kernel/block/mas_blk_busy_idle_notify.c:809:28
	bl	mas_blk_get_lld
.Ltmp195:
	.loc	2 814 6                 // kernel/block/mas_blk_busy_idle_notify.c:814:6
	ldrb	w8, [x20, #152]
.Ltmp196:
	.loc	2 814 6 is_stmt 0       // kernel/block/mas_blk_busy_idle_notify.c:814:6
	tbz	w8, #0, .LBB8_7
.Ltmp197:
// %bb.1:
	//DEBUG_VALUE: mas_blk_busyidle_check_bio_endio:bio <- $x20
	.loc	2 671 6 is_stmt 1       // kernel/block/mas_blk_busy_idle_notify.c:671:6
	ldr	x8, [x0, #368]
.Ltmp198:
	.loc	2 0 0 is_stmt 0         // kernel/block/mas_blk_busy_idle_notify.c:0:0
	mov	x19, x0
.Ltmp199:
	//DEBUG_VALUE: blk_lld_idle_notify:lld <- $x19
	//DEBUG_VALUE: atomic_sub_return:v <- [DW_OP_plus_uconst 288, DW_OP_stack_value] $x19
	//DEBUG_VALUE: blk_idle_count:blk_idle <- [DW_OP_plus_uconst 80, DW_OP_stack_value] $x19
	//DEBUG_VALUE: blk_idle_count:lld <- $x19
	//DEBUG_VALUE: spin_unlock_irqrestore:lock <- [DW_OP_plus_uconst 416, DW_OP_stack_value] $x19
	//DEBUG_VALUE: spinlock_check:lock <- [DW_OP_plus_uconst 416, DW_OP_stack_value] $x19
	//DEBUG_VALUE: mas_blk_remove_bio_from_counted_list:lld <- $x19
	//DEBUG_VALUE: mas_blk_busyidle_check_bio_endio:lld <- $x19
	//DEBUG_VALUE: mas_blk_remove_bio_from_counted_list:bio <- $x20
	.loc	2 671 6                 // kernel/block/mas_blk_busy_idle_notify.c:671:6
	cbz	x8, .LBB8_3
.Ltmp200:
// %bb.2:
	//DEBUG_VALUE: mas_blk_remove_bio_from_counted_list:bio <- $x20
	//DEBUG_VALUE: mas_blk_busyidle_check_bio_endio:lld <- $x19
	//DEBUG_VALUE: mas_blk_remove_bio_from_counted_list:lld <- $x19
	//DEBUG_VALUE: spinlock_check:lock <- [DW_OP_plus_uconst 416, DW_OP_stack_value] $x19
	//DEBUG_VALUE: spin_unlock_irqrestore:lock <- [DW_OP_plus_uconst 416, DW_OP_stack_value] $x19
	//DEBUG_VALUE: mas_blk_busyidle_check_bio_endio:bio <- $x20
	.loc	141 306 16 is_stmt 1    // kernel/include/linux/spinlock.h:306:16
	add	x21, x19, #416          // =416
.Ltmp201:
	.loc	2 678 2                 // kernel/block/mas_blk_busy_idle_notify.c:678:2
	mov	x0, x21
	bl	_raw_spin_lock_irqsave
.Ltmp202:
	.loc	2 679 25                // kernel/block/mas_blk_busy_idle_notify.c:679:25
	ldr	x8, [x19, #368]
.Ltmp203:
	.loc	2 678 2                 // kernel/block/mas_blk_busy_idle_notify.c:678:2
	mov	x1, x0
.Ltmp204:
	//DEBUG_VALUE: mas_blk_remove_bio_from_counted_list:flags <- $x1
	.loc	2 680 22                // kernel/block/mas_blk_busy_idle_notify.c:680:22
	add	x10, x20, #272          // =272
.Ltmp205:
	//DEBUG_VALUE: __list_del_entry:entry <- $x10
	//DEBUG_VALUE: list_del_init:entry <- $x10
	//DEBUG_VALUE: __list_del:prev <- $x9
	//DEBUG_VALUE: __list_del:next <- $x8
	.loc	141 372 2               // kernel/include/linux/spinlock.h:372:2
	mov	x0, x21
.Ltmp206:
	.loc	2 679 25                // kernel/block/mas_blk_busy_idle_notify.c:679:25
	sub	x8, x8, #1              // =1
.Ltmp207:
	str	x8, [x19, #368]
.Ltmp208:
	.loc	142 120 33              // kernel/include/linux/list.h:120:33
	ldp	x8, x9, [x20, #272]
.Ltmp209:
	.loc	142 105 13              // kernel/include/linux/list.h:105:13
	str	x9, [x8, #8]
.Ltmp210:
	//DEBUG_VALUE: __write_once_size:p <- $x9
	//DEBUG_VALUE: __write_once_size:size <- 8
	//DEBUG_VALUE: __write_once_size:res <- undef
	.loc	139 210 31              // kernel/include/linux/compiler.h:210:31
	str	x8, [x9]
.Ltmp211:
	//DEBUG_VALUE: __write_once_size:p <- $x10
	//DEBUG_VALUE: __write_once_size:size <- 8
	//DEBUG_VALUE: __write_once_size:res <- undef
	//DEBUG_VALUE: INIT_LIST_HEAD:list <- $x10
	.loc	139 210 31 is_stmt 0    // kernel/include/linux/compiler.h:210:31
	str	x10, [x20, #272]
.Ltmp212:
	.loc	142 29 13 is_stmt 1     // kernel/include/linux/list.h:29:13
	str	x10, [x20, #280]
.Ltmp213:
	//DEBUG_VALUE: spin_unlock_irqrestore:flags <- $x1
	.loc	141 372 2               // kernel/include/linux/spinlock.h:372:2
	bl	_raw_spin_unlock_irqrestore
.Ltmp214:
.LBB8_3:
	//DEBUG_VALUE: mas_blk_busyidle_check_bio_endio:lld <- $x19
	//DEBUG_VALUE: mas_blk_busyidle_check_bio_endio:bio <- $x20
	.loc	2 819 27                // kernel/block/mas_blk_busy_idle_notify.c:819:27
	strb	wzr, [x20, #152]
.Ltmp215:
	.loc	2 596 6                 // kernel/block/mas_blk_busy_idle_notify.c:596:6
	ldrb	w8, [x19, #24]
	tbz	w8, #3, .LBB8_7
.Ltmp216:
// %bb.4:
	//DEBUG_VALUE: mas_blk_busyidle_check_bio_endio:lld <- $x19
	//DEBUG_VALUE: mas_blk_busyidle_check_bio_endio:bio <- $x20
	.loc	2 599 16                // kernel/block/mas_blk_busy_idle_notify.c:599:16
	ldrb	w8, [x19, #80]
.Ltmp217:
	.loc	2 599 6 is_stmt 0       // kernel/block/mas_blk_busy_idle_notify.c:599:6
	cbnz	w8, .LBB8_7
.Ltmp218:
// %bb.5:
	//DEBUG_VALUE: mas_blk_busyidle_check_bio_endio:lld <- $x19
	//DEBUG_VALUE: mas_blk_busyidle_check_bio_endio:bio <- $x20
	//DEBUG_VALUE: __read_once_size:res <- undef
	//DEBUG_VALUE: __read_once_size:size <- 4
	//DEBUG_VALUE: __read_once_size:p <- [DW_OP_plus_uconst 288, DW_OP_stack_value] $x19
	.loc	139 183 2 is_stmt 1     // kernel/include/linux/compiler.h:183:2
	ldr	w8, [x19, #288]
.Ltmp219:
	.loc	2 601 6                 // kernel/block/mas_blk_busy_idle_notify.c:601:6
	cbz	w8, .LBB8_8
.Ltmp220:
// %bb.6:
	//DEBUG_VALUE: mas_blk_busyidle_check_bio_endio:lld <- $x19
	//DEBUG_VALUE: mas_blk_busyidle_check_bio_endio:bio <- $x20
	//DEBUG_VALUE: atomic_sub_return:i <- 1
	.loc	143 114 1               // kernel/arch/arm64/include/asm/atomic_ll_sc.h:114:1
	add	x8, x19, #288           // =288
	//APP
	// atomic_sub_return
	prfm	pstl1strm, [x8]
1:	ldxr	w9, [x8]
	sub	w9, w9, #1
	stlxr	w10, w9, [x8]
	cbnz	w10, 1b
	dmb ish
	//NO_APP
.Ltmp221:
	//DEBUG_VALUE: atomic_sub_return:tmp <- undef
	//DEBUG_VALUE: atomic_sub_return:result <- $w9
	.loc	2 609 6                 // kernel/block/mas_blk_busy_idle_notify.c:609:6
	cbz	w9, .LBB8_9
.Ltmp222:
.LBB8_7:
	.loc	2 822 1                 // kernel/block/mas_blk_busy_idle_notify.c:822:1
	ldp	x29, x30, [sp, #32]     // 16-byte Folded Reload
	ldp	x20, x19, [sp, #16]     // 16-byte Folded Reload
	ldr	x21, [sp], #48          // 8-byte Folded Reload
	ret
.LBB8_8:
.Ltmp223:
	//DEBUG_VALUE: mas_blk_busyidle_check_bio_endio:lld <- $x19
	//DEBUG_VALUE: mas_blk_busyidle_check_bio_endio:bio <- $x20
	.loc	2 602 3                 // kernel/block/mas_blk_busy_idle_notify.c:602:3
	adrp	x0, .L.str.12
	adrp	x1, .L__func__.blk_idle_count
	add	x0, x0, :lo12:.L.str.12
	add	x1, x1, :lo12:.L__func__.blk_idle_count
	bl	printk
	b	.LBB8_7
.Ltmp224:
.LBB8_9:
	//DEBUG_VALUE: mas_blk_busyidle_check_bio_endio:lld <- $x19
	//DEBUG_VALUE: mas_blk_busyidle_check_bio_endio:bio <- $x20
	.loc	2 441 6                 // kernel/block/mas_blk_busy_idle_notify.c:441:6
	ldr	w8, [x19]
.Ltmp225:
	.loc	2 441 6 is_stmt 0       // kernel/block/mas_blk_busy_idle_notify.c:441:6
	cmp	w8, #122                // =122
	b.ne	.LBB8_7
.Ltmp226:
// %bb.10:
	//DEBUG_VALUE: mas_blk_busyidle_check_bio_endio:lld <- $x19
	//DEBUG_VALUE: mas_blk_busyidle_check_bio_endio:bio <- $x20
	.loc	2 442 22 is_stmt 1      // kernel/block/mas_blk_busy_idle_notify.c:442:22
	adrp	x8, blk_idle_notify_workqueue
	.loc	2 445 35                // kernel/block/mas_blk_busy_idle_notify.c:445:35
	ldr	w0, [x19, #184]
	.loc	2 442 22                // kernel/block/mas_blk_busy_idle_notify.c:442:22
	ldr	x20, [x8, :lo12:blk_idle_notify_workqueue]
.Ltmp227:
	.loc	2 444 6                 // kernel/block/mas_blk_busy_idle_notify.c:444:6
	add	x19, x19, #88           // =88
.Ltmp228:
	//DEBUG_VALUE: msecs_to_jiffies:m <- $w0
	.loc	140 370 10              // kernel/include/linux/jiffies.h:370:10
	bl	__msecs_to_jiffies
.Ltmp229:
	mov	x3, x0
.Ltmp230:
	//DEBUG_VALUE: queue_delayed_work:delay <- $x3
	//DEBUG_VALUE: queue_delayed_work:dwork <- $x19
	//DEBUG_VALUE: queue_delayed_work:wq <- $x20
	.loc	20 506 9                // kernel/include/linux/workqueue.h:506:9
	orr	w0, wzr, #0x8
	mov	x1, x20
	mov	x2, x19
	bl	queue_delayed_work_on
.Ltmp231:
	.loc	20 0 9 is_stmt 0        // kernel/include/linux/workqueue.h:0:9
	b	.LBB8_7
.Ltmp232:
.Lfunc_end8:
	.size	mas_blk_busyidle_check_bio_endio, .Lfunc_end8-mas_blk_busyidle_check_bio_endio
	.cfi_endproc
                                        // -- End function
	.section	.text.blk_busyidle_event_subscribe,"ax",@progbits
	.hidden	blk_busyidle_event_subscribe // -- Begin function blk_busyidle_event_subscribe
	.globl	blk_busyidle_event_subscribe
	.p2align	2
	.type	blk_busyidle_event_subscribe,@function
blk_busyidle_event_subscribe:           // @blk_busyidle_event_subscribe
.Lfunc_begin9:
	.loc	2 830 0 is_stmt 1       // kernel/block/mas_blk_busy_idle_notify.c:830:0
	.cfi_startproc
// %bb.0:
	//DEBUG_VALUE: blk_busyidle_event_subscribe:bdev <- $x0
	//DEBUG_VALUE: blk_busyidle_event_subscribe:event_node <- $x1
	str	x19, [sp, #-32]!        // 8-byte Folded Spill
	stp	x29, x30, [sp, #16]     // 16-byte Folded Spill
	add	x29, sp, #16            // =16
	.cfi_def_cfa w29, 16
	.cfi_offset w30, -8
	.cfi_offset w29, -16
	.cfi_offset w19, -32
	mov	x8, x0
	mov	w0, #-22
.Ltmp233:
	//DEBUG_VALUE: blk_busyidle_event_subscribe:bdev <- $x8
	.loc	2 831 12 prologue_end   // kernel/block/mas_blk_busy_idle_notify.c:831:12
	cbz	x8, .LBB9_5
.Ltmp234:
// %bb.1:
	//DEBUG_VALUE: blk_busyidle_event_subscribe:bdev <- $x8
	//DEBUG_VALUE: blk_busyidle_event_subscribe:event_node <- $x1
	.loc	2 0 12 is_stmt 0        // kernel/block/mas_blk_busy_idle_notify.c:0:12
	mov	x19, x1
.Ltmp235:
	//DEBUG_VALUE: blk_busyidle_event_subscribe:event_node <- $x19
	.loc	2 831 12                // kernel/block/mas_blk_busy_idle_notify.c:831:12
	cbz	x1, .LBB9_5
.Ltmp236:
// %bb.2:
	//DEBUG_VALUE: blk_busyidle_event_subscribe:event_node <- $x19
	//DEBUG_VALUE: blk_busyidle_event_subscribe:bdev <- $x8
	//DEBUG_VALUE: bdev_get_queue:bdev <- $x8
	.loc	3 1748 15 is_stmt 1     // kernel/include/linux/blkdev.h:1748:15
	ldr	x8, [x8, #160]
.Ltmp237:
	.loc	3 1748 24 is_stmt 0     // kernel/include/linux/blkdev.h:1748:24
	ldr	x0, [x8, #1088]
.Ltmp238:
	//DEBUG_VALUE: blk_queue_busyidle_event_subscribe:event_node <- $x19
	//DEBUG_VALUE: blk_queue_busyidle_event_subscribe:q <- $x0
	.loc	2 845 9 is_stmt 1       // kernel/block/mas_blk_busy_idle_notify.c:845:9
	cbz	x0, .LBB9_4
.Ltmp239:
// %bb.3:
	//DEBUG_VALUE: blk_queue_busyidle_event_subscribe:q <- $x0
	//DEBUG_VALUE: blk_queue_busyidle_event_subscribe:event_node <- $x19
	//DEBUG_VALUE: blk_busyidle_event_subscribe:event_node <- $x19
	.loc	2 849 3                 // kernel/block/mas_blk_busy_idle_notify.c:849:3
	bl	mas_blk_get_lld
.Ltmp240:
	.loc	2 848 9                 // kernel/block/mas_blk_busy_idle_notify.c:848:9
	mov	x1, x19
	bl	blk_lld_busyidle_event_subscribe
	b	.LBB9_5
.Ltmp241:
.LBB9_4:
	//DEBUG_VALUE: blk_queue_busyidle_event_subscribe:q <- $x0
	//DEBUG_VALUE: blk_queue_busyidle_event_subscribe:event_node <- $x19
	//DEBUG_VALUE: blk_busyidle_event_subscribe:event_node <- $x19
	.loc	2 0 9 is_stmt 0         // kernel/block/mas_blk_busy_idle_notify.c:0:9
	mov	w0, #-22
.Ltmp242:
.LBB9_5:
	.loc	2 836 1 is_stmt 1       // kernel/block/mas_blk_busy_idle_notify.c:836:1
	ldp	x29, x30, [sp, #16]     // 16-byte Folded Reload
	ldr	x19, [sp], #32          // 8-byte Folded Reload
	ret
.Ltmp243:
.Lfunc_end9:
	.size	blk_busyidle_event_subscribe, .Lfunc_end9-blk_busyidle_event_subscribe
	.cfi_endproc
                                        // -- End function
	.section	.text.blk_queue_busyidle_event_subscribe,"ax",@progbits
	.hidden	blk_queue_busyidle_event_subscribe // -- Begin function blk_queue_busyidle_event_subscribe
	.globl	blk_queue_busyidle_event_subscribe
	.p2align	2
	.type	blk_queue_busyidle_event_subscribe,@function
blk_queue_busyidle_event_subscribe:     // @blk_queue_busyidle_event_subscribe
.Lfunc_begin10:
	.loc	2 844 0                 // kernel/block/mas_blk_busy_idle_notify.c:844:0
	.cfi_startproc
// %bb.0:
	//DEBUG_VALUE: blk_queue_busyidle_event_subscribe:q <- $x0
	//DEBUG_VALUE: blk_queue_busyidle_event_subscribe:event_node <- $x1
	str	x19, [sp, #-32]!        // 8-byte Folded Spill
	stp	x29, x30, [sp, #16]     // 16-byte Folded Spill
	add	x29, sp, #16            // =16
	.cfi_def_cfa w29, 16
	.cfi_offset w30, -8
	.cfi_offset w29, -16
	.cfi_offset w19, -32
	mov	x8, x0
	mov	w0, #-22
.Ltmp244:
	//DEBUG_VALUE: blk_queue_busyidle_event_subscribe:q <- $x8
	.loc	2 845 9 prologue_end    // kernel/block/mas_blk_busy_idle_notify.c:845:9
	cbz	x8, .LBB10_3
.Ltmp245:
// %bb.1:
	//DEBUG_VALUE: blk_queue_busyidle_event_subscribe:q <- $x8
	//DEBUG_VALUE: blk_queue_busyidle_event_subscribe:event_node <- $x1
	.loc	2 0 9 is_stmt 0         // kernel/block/mas_blk_busy_idle_notify.c:0:9
	mov	x19, x1
.Ltmp246:
	//DEBUG_VALUE: blk_queue_busyidle_event_subscribe:event_node <- $x19
	.loc	2 845 9                 // kernel/block/mas_blk_busy_idle_notify.c:845:9
	cbz	x1, .LBB10_3
.Ltmp247:
// %bb.2:
	//DEBUG_VALUE: blk_queue_busyidle_event_subscribe:event_node <- $x19
	//DEBUG_VALUE: blk_queue_busyidle_event_subscribe:q <- $x8
	.loc	2 849 3 is_stmt 1       // kernel/block/mas_blk_busy_idle_notify.c:849:3
	mov	x0, x8
	bl	mas_blk_get_lld
.Ltmp248:
	.loc	2 848 9                 // kernel/block/mas_blk_busy_idle_notify.c:848:9
	mov	x1, x19
	bl	blk_lld_busyidle_event_subscribe
.Ltmp249:
.LBB10_3:
	.loc	2 851 1                 // kernel/block/mas_blk_busy_idle_notify.c:851:1
	ldp	x29, x30, [sp, #16]     // 16-byte Folded Reload
	ldr	x19, [sp], #32          // 8-byte Folded Reload
	ret
.Ltmp250:
.Lfunc_end10:
	.size	blk_queue_busyidle_event_subscribe, .Lfunc_end10-blk_queue_busyidle_event_subscribe
	.cfi_endproc
                                        // -- End function
	.section	.text.blk_lld_busyidle_event_subscribe,"ax",@progbits
	.hidden	blk_lld_busyidle_event_subscribe // -- Begin function blk_lld_busyidle_event_subscribe
	.globl	blk_lld_busyidle_event_subscribe
	.p2align	2
	.type	blk_lld_busyidle_event_subscribe,@function
blk_lld_busyidle_event_subscribe:       // @blk_lld_busyidle_event_subscribe
.Lfunc_begin11:
	.loc	2 859 0                 // kernel/block/mas_blk_busy_idle_notify.c:859:0
	.cfi_startproc
// %bb.0:
	//DEBUG_VALUE: blk_lld_busyidle_event_subscribe:lld <- $x0
	//DEBUG_VALUE: blk_lld_busyidle_event_subscribe:event_node <- $x1
	stp	x24, x23, [sp, #-64]!   // 16-byte Folded Spill
	stp	x22, x21, [sp, #16]     // 16-byte Folded Spill
	stp	x20, x19, [sp, #32]     // 16-byte Folded Spill
	stp	x29, x30, [sp, #48]     // 16-byte Folded Spill
	add	x29, sp, #48            // =48
	.cfi_def_cfa w29, 16
	.cfi_offset w30, -8
	.cfi_offset w29, -16
	.cfi_offset w19, -24
	.cfi_offset w20, -32
	.cfi_offset w21, -40
	.cfi_offset w22, -48
	.cfi_offset w23, -56
	.cfi_offset w24, -64
	mov	w21, #-22
.Ltmp251:
	.loc	2 860 11 prologue_end   // kernel/block/mas_blk_busy_idle_notify.c:860:11
	cbz	x0, .LBB11_16
.Ltmp252:
// %bb.1:
	//DEBUG_VALUE: blk_lld_busyidle_event_subscribe:event_node <- $x1
	//DEBUG_VALUE: blk_lld_busyidle_event_subscribe:lld <- $x0
	.loc	2 0 11 is_stmt 0        // kernel/block/mas_blk_busy_idle_notify.c:0:11
	mov	x22, x1
.Ltmp253:
	//DEBUG_VALUE: blk_lld_busyidle_event_subscribe:event_node <- $x22
	.loc	2 860 11                // kernel/block/mas_blk_busy_idle_notify.c:860:11
	cbz	x1, .LBB11_16
.Ltmp254:
// %bb.2:
	//DEBUG_VALUE: blk_lld_busyidle_event_subscribe:event_node <- $x22
	//DEBUG_VALUE: blk_lld_busyidle_event_subscribe:lld <- $x0
	.loc	2 863 18 is_stmt 1      // kernel/block/mas_blk_busy_idle_notify.c:863:18
	str	x0, [x22, #48]
.Ltmp255:
	//DEBUG_VALUE: index <- 2
	//DEBUG_VALUE: kmalloc:flags <- 21004480
	//DEBUG_VALUE: kmalloc:size <- 152
	//DEBUG_VALUE: kzalloc:flags <- 20971712
	//DEBUG_VALUE: kzalloc:size <- 152
	//DEBUG_VALUE: mas_blk_busyidle_event_register:blk_idle <- [DW_OP_plus_uconst 80, DW_OP_stack_value] $x20
	//DEBUG_VALUE: mas_blk_busyidle_event_register:nb <- 0
	//DEBUG_VALUE: mas_blk_busyidle_event_register:ret <- 0
	//DEBUG_VALUE: mas_blk_busyidle_event_register:event_node <- $x22
	//DEBUG_VALUE: mas_blk_busyidle_event_register:lld <- $x20
	.loc	21 539 5                // kernel/include/linux/slab.h:539:5
	adrp	x8, kmalloc_caches+16
	mov	x20, x0
.Ltmp256:
	//DEBUG_VALUE: blk_lld_busyidle_event_subscribe:lld <- $x20
	ldr	x0, [x8, :lo12:kmalloc_caches+16]
	.loc	21 538 10               // kernel/include/linux/slab.h:538:10
	mov	w1, #32960
	movk	w1, #320, lsl #16
	mov	w2, #152
	bl	kmem_cache_alloc_trace
.Ltmp257:
	.loc	2 240 6                 // kernel/block/mas_blk_busy_idle_notify.c:240:6
	cbz	x0, .LBB11_6
.Ltmp258:
// %bb.3:
	//DEBUG_VALUE: blk_lld_busyidle_event_subscribe:lld <- $x20
	//DEBUG_VALUE: mas_blk_busyidle_event_register:event_node <- $x22
	//DEBUG_VALUE: blk_lld_busyidle_event_subscribe:event_node <- $x22
	.loc	2 243 2                 // kernel/block/mas_blk_busy_idle_notify.c:243:2
	ldp	x8, x9, [x22]
	ldr	x10, [x22, #16]
	mov	x21, x0
	.loc	2 0 0 is_stmt 0         // kernel/block/mas_blk_busy_idle_notify.c:0:0
	mov	x19, x0
.Ltmp259:
	//DEBUG_VALUE: mas_blk_busyidle_event_register:nb <- $x19
	//DEBUG_VALUE: __list_add:new <- $x19
	//DEBUG_VALUE: list_add_tail:new <- $x19
	//DEBUG_VALUE: setup_busy_idle_notify_nb:nb <- $x19
	.loc	2 243 2                 // kernel/block/mas_blk_busy_idle_notify.c:243:2
	str	x8, [x21, #88]!
.Ltmp260:
	//DEBUG_VALUE: busyidle_find_subscribed_node:node <- $x21
	stp	x9, x10, [x21, #8]
	ldp	x8, x9, [x22, #40]
	ldp	x10, x11, [x22, #24]
	stp	x8, x9, [x21, #40]
	stp	x10, x11, [x21, #24]
.Ltmp261:
	//DEBUG_VALUE: is_valid_event_node:event_node <- $x21
	.loc	2 196 6 is_stmt 1       // kernel/block/mas_blk_busy_idle_notify.c:196:6
	cbz	x11, .LBB11_7
.Ltmp262:
// %bb.4:
	//DEBUG_VALUE: is_valid_event_node:event_node <- $x21
	//DEBUG_VALUE: mas_blk_busyidle_event_register:nb <- $x19
	//DEBUG_VALUE: blk_lld_busyidle_event_subscribe:lld <- $x20
	//DEBUG_VALUE: mas_blk_busyidle_event_register:event_node <- $x22
	//DEBUG_VALUE: blk_lld_busyidle_event_subscribe:event_node <- $x22
	.loc	2 201 6                 // kernel/block/mas_blk_busy_idle_notify.c:201:6
	mov	x0, x21
	bl	strlen
	.loc	2 201 41 is_stmt 0      // kernel/block/mas_blk_busy_idle_notify.c:201:41
	sub	x8, x0, #1              // =1
	cmp	x8, #31                 // =31
	b.lo	.LBB11_10
.Ltmp263:
// %bb.5:
	//DEBUG_VALUE: is_valid_event_node:event_node <- $x21
	//DEBUG_VALUE: mas_blk_busyidle_event_register:nb <- $x19
	//DEBUG_VALUE: blk_lld_busyidle_event_subscribe:lld <- $x20
	//DEBUG_VALUE: mas_blk_busyidle_event_register:event_node <- $x22
	//DEBUG_VALUE: blk_lld_busyidle_event_subscribe:event_node <- $x22
	.loc	2 203 3 is_stmt 1       // kernel/block/mas_blk_busy_idle_notify.c:203:3
	adrp	x0, .L.str.16
	add	x0, x0, :lo12:.L.str.16
	b	.LBB11_8
.Ltmp264:
.LBB11_6:
	//DEBUG_VALUE: blk_lld_busyidle_event_subscribe:lld <- $x20
	//DEBUG_VALUE: mas_blk_busyidle_event_register:event_node <- $x22
	//DEBUG_VALUE: blk_lld_busyidle_event_subscribe:event_node <- $x22
	.loc	2 0 3 is_stmt 0         // kernel/block/mas_blk_busy_idle_notify.c:0:3
	mov	w21, #-12
	b	.LBB11_16
.Ltmp265:
.LBB11_7:
	//DEBUG_VALUE: is_valid_event_node:event_node <- $x21
	//DEBUG_VALUE: mas_blk_busyidle_event_register:nb <- $x19
	//DEBUG_VALUE: blk_lld_busyidle_event_subscribe:lld <- $x20
	//DEBUG_VALUE: mas_blk_busyidle_event_register:event_node <- $x22
	//DEBUG_VALUE: blk_lld_busyidle_event_subscribe:event_node <- $x22
	.loc	2 197 3 is_stmt 1       // kernel/block/mas_blk_busy_idle_notify.c:197:3
	adrp	x0, .L.str.15
	add	x0, x0, :lo12:.L.str.15
.Ltmp266:
.LBB11_8:
	//DEBUG_VALUE: is_valid_event_node:event_node <- $x21
	//DEBUG_VALUE: mas_blk_busyidle_event_register:nb <- $x19
	//DEBUG_VALUE: blk_lld_busyidle_event_subscribe:lld <- $x20
	//DEBUG_VALUE: mas_blk_busyidle_event_register:event_node <- $x22
	//DEBUG_VALUE: blk_lld_busyidle_event_subscribe:event_node <- $x22
	.loc	2 0 0 is_stmt 0         // kernel/block/mas_blk_busy_idle_notify.c:0:0
	adrp	x1, .L__func__.is_valid_event_node
	add	x1, x1, :lo12:.L__func__.is_valid_event_node
	bl	printk
.Ltmp267:
	.loc	2 248 3 is_stmt 1       // kernel/block/mas_blk_busy_idle_notify.c:248:3
	bl	dump_stack
	mov	w21, #-22
.Ltmp268:
	//DEBUG_LABEL: mas_blk_busyidle_event_register:free_notify_nb
	//DEBUG_VALUE: mas_blk_busyidle_event_register:ret <- -1
.LBB11_9:
	//DEBUG_VALUE: mas_blk_busyidle_event_register:nb <- $x19
	//DEBUG_VALUE: blk_lld_busyidle_event_subscribe:lld <- $x20
	.loc	2 287 3                 // kernel/block/mas_blk_busy_idle_notify.c:287:3
	mov	x0, x19
	bl	kfree
	b	.LBB11_16
.Ltmp269:
.LBB11_10:
	//DEBUG_VALUE: mas_blk_busyidle_event_register:nb <- $x19
	//DEBUG_VALUE: blk_lld_busyidle_event_subscribe:lld <- $x20
	//DEBUG_VALUE: mas_blk_busyidle_event_register:event_node <- $x22
	//DEBUG_VALUE: blk_lld_busyidle_event_subscribe:event_node <- $x22
	.loc	2 254 24                // kernel/block/mas_blk_busy_idle_notify.c:254:24
	add	x22, x20, #296          // =296
.Ltmp270:
	.loc	2 254 2 is_stmt 0       // kernel/block/mas_blk_busy_idle_notify.c:254:2
	mov	x0, x22
	bl	mutex_lock
.Ltmp271:
	//DEBUG_VALUE: list_add_tail:head <- undef
	//DEBUG_VALUE: __list_add:next <- undef
	//DEBUG_VALUE: __mptr <- undef
	.loc	2 0 0                   // kernel/block/mas_blk_busy_idle_notify.c:0:0
	mov	x23, x20
	ldr	x24, [x23, #192]!
.Ltmp272:
	//DEBUG_VALUE: busyidle_find_subscribed_node:blk_idle <- [DW_OP_plus_uconst 80, DW_OP_stack_value] $x20
	//DEBUG_VALUE: busyidle_find_subscribed_node:p <- 0
	.loc	2 184 2 is_stmt 1       // kernel/block/mas_blk_busy_idle_notify.c:184:2
	cmp	x24, x23
	b.ne	.LBB11_12
	b	.LBB11_15
.Ltmp273:
.LBB11_11:                              //   in Loop: Header=BB11_12 Depth=1
	//DEBUG_VALUE: busyidle_find_subscribed_node:blk_idle <- [DW_OP_plus_uconst 80, DW_OP_stack_value] $x20
	//DEBUG_VALUE: mas_blk_busyidle_event_register:nb <- $x19
	//DEBUG_VALUE: blk_lld_busyidle_event_subscribe:lld <- $x20
	//DEBUG_VALUE: __mptr <- undef
	.loc	2 0 0 is_stmt 0         // kernel/block/mas_blk_busy_idle_notify.c:0:0
	ldr	x24, [x24]
	//DEBUG_VALUE: busyidle_find_subscribed_node:blk_idle <- [DW_OP_plus_uconst 80, DW_OP_stack_value] $x20
	//DEBUG_VALUE: busyidle_find_subscribed_node:p <- 0
	.loc	2 184 2                 // kernel/block/mas_blk_busy_idle_notify.c:184:2
	cmp	x24, x23
	b.eq	.LBB11_15
.Ltmp274:
.LBB11_12:                              // =>This Inner Loop Header: Depth=1
	//DEBUG_VALUE: busyidle_find_subscribed_node:blk_idle <- [DW_OP_plus_uconst 80, DW_OP_stack_value] $x20
	//DEBUG_VALUE: mas_blk_busyidle_event_register:nb <- $x19
	//DEBUG_VALUE: blk_lld_busyidle_event_subscribe:lld <- $x20
	.loc	2 185 33 is_stmt 1      // kernel/block/mas_blk_busy_idle_notify.c:185:33
	add	x1, x24, #88            // =88
	.loc	2 185 8 is_stmt 0       // kernel/block/mas_blk_busy_idle_notify.c:185:8
	mov	x0, x21
	bl	strcmp
	.loc	2 186 4 is_stmt 1       // kernel/block/mas_blk_busy_idle_notify.c:186:4
	cbnz	w0, .LBB11_11
.Ltmp275:
// %bb.13:                              //   in Loop: Header=BB11_12 Depth=1
	//DEBUG_VALUE: busyidle_find_subscribed_node:blk_idle <- [DW_OP_plus_uconst 80, DW_OP_stack_value] $x20
	//DEBUG_VALUE: mas_blk_busyidle_event_register:nb <- $x19
	//DEBUG_VALUE: blk_lld_busyidle_event_subscribe:lld <- $x20
	.loc	2 186 13 is_stmt 0      // kernel/block/mas_blk_busy_idle_notify.c:186:13
	ldr	x8, [x19, #120]
	.loc	2 187 18 is_stmt 1      // kernel/block/mas_blk_busy_idle_notify.c:187:18
	ldr	x9, [x24, #120]
.Ltmp276:
	.loc	2 185 7                 // kernel/block/mas_blk_busy_idle_notify.c:185:7
	cmp	x8, x9
	b.ne	.LBB11_11
.Ltmp277:
// %bb.14:
	//DEBUG_VALUE: mas_blk_busyidle_event_register:nb <- $x19
	//DEBUG_VALUE: blk_lld_busyidle_event_subscribe:lld <- $x20
	.loc	2 260 3                 // kernel/block/mas_blk_busy_idle_notify.c:260:3
	adrp	x0, .L.str.13
	adrp	x1, .L__func__.mas_blk_busyidle_event_register
	add	x0, x0, :lo12:.L.str.13
	add	x1, x1, :lo12:.L__func__.mas_blk_busyidle_event_register
	mov	x2, x21
	bl	printk
	.loc	2 265 3                 // kernel/block/mas_blk_busy_idle_notify.c:265:3
	bl	dump_stack
.Ltmp278:
	//DEBUG_LABEL: mas_blk_busyidle_event_register:unlock
	//DEBUG_VALUE: mas_blk_busyidle_event_register:ret <- -1
	.loc	2 283 2                 // kernel/block/mas_blk_busy_idle_notify.c:283:2
	mov	x0, x22
	bl	mutex_unlock
	mov	w21, #-1
	b	.LBB11_9
.Ltmp279:
.LBB11_15:
	//DEBUG_VALUE: mas_blk_busyidle_event_register:nb <- $x19
	//DEBUG_VALUE: blk_lld_busyidle_event_subscribe:lld <- $x20
	.loc	2 216 2                 // kernel/block/mas_blk_busy_idle_notify.c:216:2
	add	x0, x19, #16            // =16
	mov	w1, wzr
	mov	x2, xzr
	mov	x3, xzr
	bl	init_timer_key
	adrp	x8, __cfi_mas_blk_busyidle_handler_latency_check_timer_expire
.Ltmp280:
	.loc	2 220 32                // kernel/block/mas_blk_busy_idle_notify.c:220:32
	adrp	x9, __cfi_mas_blk_busyidle_notify_handler
.Ltmp281:
	.loc	2 216 2                 // kernel/block/mas_blk_busy_idle_notify.c:216:2
	add	x8, x8, :lo12:__cfi_mas_blk_busyidle_handler_latency_check_timer_expire
.Ltmp282:
	.loc	2 220 32                // kernel/block/mas_blk_busy_idle_notify.c:220:32
	add	x9, x9, :lo12:__cfi_mas_blk_busyidle_notify_handler
	mov	x1, x19
	orr	w10, wzr, #0x1
.Ltmp283:
	.loc	2 216 2                 // kernel/block/mas_blk_busy_idle_notify.c:216:2
	stp	x8, x19, [x19, #40]
.Ltmp284:
	.loc	2 220 32                // kernel/block/mas_blk_busy_idle_notify.c:220:32
	str	x9, [x1, #64]!
	.loc	2 221 27                // kernel/block/mas_blk_busy_idle_notify.c:221:27
	str	wzr, [x19, #80]
	.loc	2 222 17                // kernel/block/mas_blk_busy_idle_notify.c:222:17
	str	w10, [x19, #144]
.Ltmp285:
	.loc	142 93 24               // kernel/include/linux/list.h:93:24
	ldr	x8, [x20, #200]
.Ltmp286:
	//DEBUG_VALUE: __list_add:prev <- $x8
	.loc	2 273 46                // kernel/block/mas_blk_busy_idle_notify.c:273:46
	add	x0, x20, #208           // =208
.Ltmp287:
	.loc	142 63 13               // kernel/include/linux/list.h:63:13
	str	x19, [x20, #200]
	.loc	142 64 12               // kernel/include/linux/list.h:64:12
	stp	x23, x8, [x19]
.Ltmp288:
	//DEBUG_VALUE: __write_once_size:p <- $x8
	//DEBUG_VALUE: __write_once_size:size <- 8
	//DEBUG_VALUE: __write_once_size:res <- undef
	.loc	139 210 31              // kernel/include/linux/compiler.h:210:31
	str	x19, [x8]
.Ltmp289:
	.loc	2 273 2                 // kernel/block/mas_blk_busy_idle_notify.c:273:2
	bl	blocking_notifier_chain_register
.Ltmp290:
	.loc	2 274 2                 // kernel/block/mas_blk_busy_idle_notify.c:274:2
	adrp	x0, .L.str.14
	add	x0, x0, :lo12:.L.str.14
	mov	x1, x21
	bl	printk
.Ltmp291:
	//DEBUG_LABEL: mas_blk_busyidle_event_register:unlock
	//DEBUG_VALUE: mas_blk_busyidle_event_register:ret <- -1
	.loc	2 283 2                 // kernel/block/mas_blk_busy_idle_notify.c:283:2
	mov	x0, x22
	bl	mutex_unlock
.Ltmp292:
	//DEBUG_LABEL: mas_blk_busyidle_event_register:free_notify_nb
	.loc	2 0 0 is_stmt 0         // kernel/block/mas_blk_busy_idle_notify.c:0:0
	mov	w21, wzr
	//DEBUG_VALUE: mas_blk_busyidle_event_register:ret <- -1
.Ltmp293:
.LBB11_16:
	.loc	2 865 1 is_stmt 1       // kernel/block/mas_blk_busy_idle_notify.c:865:1
	mov	w0, w21
	ldp	x29, x30, [sp, #48]     // 16-byte Folded Reload
	ldp	x20, x19, [sp, #32]     // 16-byte Folded Reload
	ldp	x22, x21, [sp, #16]     // 16-byte Folded Reload
	ldp	x24, x23, [sp], #64     // 16-byte Folded Reload
	ret
.Ltmp294:
.Lfunc_end11:
	.size	blk_lld_busyidle_event_subscribe, .Lfunc_end11-blk_lld_busyidle_event_subscribe
	.cfi_endproc
                                        // -- End function
	.section	.text.blk_busyidle_event_unsubscribe,"ax",@progbits
	.hidden	blk_busyidle_event_unsubscribe // -- Begin function blk_busyidle_event_unsubscribe
	.globl	blk_busyidle_event_unsubscribe
	.p2align	2
	.type	blk_busyidle_event_unsubscribe,@function
blk_busyidle_event_unsubscribe:         // @blk_busyidle_event_unsubscribe
.Lfunc_begin12:
	.loc	2 872 0                 // kernel/block/mas_blk_busy_idle_notify.c:872:0
	.cfi_startproc
// %bb.0:
	//DEBUG_VALUE: blk_busyidle_event_unsubscribe:event_node <- $x0
	//DEBUG_VALUE: blk_busyidle_event_unsubscribe:event_node <- $x0
	.loc	2 873 6 prologue_end    // kernel/block/mas_blk_busy_idle_notify.c:873:6
	cbz	x0, .LBB12_2
.Ltmp295:
// %bb.1:
	//DEBUG_VALUE: blk_busyidle_event_unsubscribe:event_node <- $x0
	stp	x29, x30, [sp, #-16]!   // 16-byte Folded Spill
	mov	x29, sp
	.cfi_def_cfa w29, 16
	.cfi_offset w30, -8
	.cfi_offset w29, -16
	.loc	2 876 9                 // kernel/block/mas_blk_busy_idle_notify.c:876:9
	bl	mas_blk_busyidle_event_unregister
.Ltmp296:
	.loc	2 0 9 is_stmt 0         // kernel/block/mas_blk_busy_idle_notify.c:0:9
	ldp	x29, x30, [sp], #16     // 16-byte Folded Reload
	.loc	2 877 1 is_stmt 1       // kernel/block/mas_blk_busy_idle_notify.c:877:1
	ret
.LBB12_2:
.Ltmp297:
	//DEBUG_VALUE: blk_busyidle_event_unsubscribe:event_node <- $x0
	.loc	2 0 1 is_stmt 0         // kernel/block/mas_blk_busy_idle_notify.c:0:1
	mov	w0, #-22
.Ltmp298:
	.loc	2 877 1                 // kernel/block/mas_blk_busy_idle_notify.c:877:1
	ret
.Ltmp299:
.Lfunc_end12:
	.size	blk_busyidle_event_unsubscribe, .Lfunc_end12-blk_busyidle_event_unsubscribe
	.cfi_endproc
                                        // -- End function
	.section	.text.mas_blk_busyidle_event_unregister,"ax",@progbits
	.p2align	2               // -- Begin function mas_blk_busyidle_event_unregister
	.type	mas_blk_busyidle_event_unregister,@function
mas_blk_busyidle_event_unregister:      // @mas_blk_busyidle_event_unregister
.Lfunc_begin13:
	.loc	2 296 0 is_stmt 1       // kernel/block/mas_blk_busy_idle_notify.c:296:0
	.cfi_startproc
// %bb.0:
	//DEBUG_VALUE: mas_blk_busyidle_event_unregister:event_node <- $x0
	stp	x24, x23, [sp, #-64]!   // 16-byte Folded Spill
	stp	x22, x21, [sp, #16]     // 16-byte Folded Spill
	stp	x20, x19, [sp, #32]     // 16-byte Folded Spill
	stp	x29, x30, [sp, #48]     // 16-byte Folded Spill
	add	x29, sp, #48            // =48
	.cfi_def_cfa w29, 16
	.cfi_offset w30, -8
	.cfi_offset w29, -16
	.cfi_offset w19, -24
	.cfi_offset w20, -32
	.cfi_offset w21, -40
	.cfi_offset w22, -48
	.cfi_offset w23, -56
	.cfi_offset w24, -64
.Ltmp300:
	.loc	2 299 40 prologue_end   // kernel/block/mas_blk_busy_idle_notify.c:299:40
	ldr	x23, [x0, #48]
.Ltmp301:
	//DEBUG_VALUE: mas_blk_busyidle_event_unregister:blk_idle <- [DW_OP_plus_uconst 80, DW_OP_stack_value] $x23
	//DEBUG_VALUE: mas_blk_busyidle_event_unregister:lld <- $x23
	.loc	2 0 40 is_stmt 0        // kernel/block/mas_blk_busy_idle_notify.c:0:40
	mov	x21, x0
.Ltmp302:
	//DEBUG_VALUE: mas_blk_busyidle_event_unregister:nb <- 0
	//DEBUG_VALUE: mas_blk_busyidle_event_unregister:ret <- 0
	//DEBUG_VALUE: mas_blk_busyidle_event_unregister:event_node <- $x21
	.loc	2 302 24 is_stmt 1      // kernel/block/mas_blk_busy_idle_notify.c:302:24
	add	x19, x23, #296          // =296
	.loc	2 302 2 is_stmt 0       // kernel/block/mas_blk_busy_idle_notify.c:302:2
	mov	x0, x19
	bl	mutex_lock
.Ltmp303:
	//DEBUG_VALUE: __mptr <- undef
	//DEBUG_VALUE: busyidle_find_subscribed_node:blk_idle <- [DW_OP_plus_uconst 80, DW_OP_stack_value] $x23
	.loc	2 0 0                   // kernel/block/mas_blk_busy_idle_notify.c:0:0
	mov	x24, x23
	ldr	x20, [x24, #192]!
.Ltmp304:
	//DEBUG_VALUE: busyidle_find_subscribed_node:node <- $x21
	//DEBUG_VALUE: busyidle_find_subscribed_node:p <- 0
	.loc	2 184 2 is_stmt 1       // kernel/block/mas_blk_busy_idle_notify.c:184:2
	cmp	x20, x24
	b.ne	.LBB13_2
	b	.LBB13_5
.Ltmp305:
.LBB13_1:                               //   in Loop: Header=BB13_2 Depth=1
	//DEBUG_VALUE: mas_blk_busyidle_event_unregister:nb <- $x20
	//DEBUG_VALUE: busyidle_find_subscribed_node:node <- $x21
	//DEBUG_VALUE: busyidle_find_subscribed_node:blk_idle <- [DW_OP_plus_uconst 80, DW_OP_stack_value] $x23
	//DEBUG_VALUE: mas_blk_busyidle_event_unregister:event_node <- $x21
	//DEBUG_VALUE: mas_blk_busyidle_event_unregister:lld <- $x23
	//DEBUG_VALUE: mas_blk_busyidle_event_unregister:blk_idle <- [DW_OP_plus_uconst 80, DW_OP_stack_value] $x23
	//DEBUG_VALUE: __mptr <- undef
	.loc	2 0 0 is_stmt 0         // kernel/block/mas_blk_busy_idle_notify.c:0:0
	ldr	x20, [x20]
.Ltmp306:
	//DEBUG_VALUE: busyidle_find_subscribed_node:node <- $x21
	//DEBUG_VALUE: busyidle_find_subscribed_node:p <- 0
	.loc	2 184 2                 // kernel/block/mas_blk_busy_idle_notify.c:184:2
	cmp	x20, x24
	b.eq	.LBB13_5
.Ltmp307:
.LBB13_2:                               // =>This Inner Loop Header: Depth=1
	//DEBUG_VALUE: busyidle_find_subscribed_node:node <- $x21
	//DEBUG_VALUE: busyidle_find_subscribed_node:blk_idle <- [DW_OP_plus_uconst 80, DW_OP_stack_value] $x23
	//DEBUG_VALUE: mas_blk_busyidle_event_unregister:event_node <- $x21
	//DEBUG_VALUE: mas_blk_busyidle_event_unregister:lld <- $x23
	//DEBUG_VALUE: mas_blk_busyidle_event_unregister:blk_idle <- [DW_OP_plus_uconst 80, DW_OP_stack_value] $x23
	//DEBUG_VALUE: mas_blk_busyidle_event_unregister:nb <- $x20
	.loc	2 185 33 is_stmt 1      // kernel/block/mas_blk_busy_idle_notify.c:185:33
	add	x22, x20, #88           // =88
	.loc	2 185 8 is_stmt 0       // kernel/block/mas_blk_busy_idle_notify.c:185:8
	mov	x0, x21
	mov	x1, x22
	bl	strcmp
	.loc	2 186 4 is_stmt 1       // kernel/block/mas_blk_busy_idle_notify.c:186:4
	cbnz	w0, .LBB13_1
.Ltmp308:
// %bb.3:                               //   in Loop: Header=BB13_2 Depth=1
	//DEBUG_VALUE: mas_blk_busyidle_event_unregister:nb <- $x20
	//DEBUG_VALUE: busyidle_find_subscribed_node:node <- $x21
	//DEBUG_VALUE: busyidle_find_subscribed_node:blk_idle <- [DW_OP_plus_uconst 80, DW_OP_stack_value] $x23
	//DEBUG_VALUE: mas_blk_busyidle_event_unregister:event_node <- $x21
	//DEBUG_VALUE: mas_blk_busyidle_event_unregister:lld <- $x23
	//DEBUG_VALUE: mas_blk_busyidle_event_unregister:blk_idle <- [DW_OP_plus_uconst 80, DW_OP_stack_value] $x23
	.loc	2 186 13 is_stmt 0      // kernel/block/mas_blk_busy_idle_notify.c:186:13
	ldr	x8, [x21, #32]
	.loc	2 187 18 is_stmt 1      // kernel/block/mas_blk_busy_idle_notify.c:187:18
	ldr	x9, [x20, #120]
.Ltmp309:
	.loc	2 185 7                 // kernel/block/mas_blk_busy_idle_notify.c:185:7
	cmp	x8, x9
	b.ne	.LBB13_1
.Ltmp310:
// %bb.4:
	//DEBUG_VALUE: mas_blk_busyidle_event_unregister:nb <- $x20
	//DEBUG_VALUE: mas_blk_busyidle_event_unregister:event_node <- $x21
	//DEBUG_VALUE: mas_blk_busyidle_event_unregister:lld <- $x23
	//DEBUG_VALUE: mas_blk_busyidle_event_unregister:blk_idle <- [DW_OP_plus_uconst 80, DW_OP_stack_value] $x23
	.loc	2 315 57                // kernel/block/mas_blk_busy_idle_notify.c:315:57
	add	x21, x20, #64           // =64
.Ltmp311:
	.loc	2 315 48 is_stmt 0      // kernel/block/mas_blk_busy_idle_notify.c:315:48
	add	x0, x23, #208           // =208
	.loc	2 315 2                 // kernel/block/mas_blk_busy_idle_notify.c:315:2
	mov	x1, x21
	bl	blocking_notifier_chain_unregister
	.loc	2 316 2 is_stmt 1       // kernel/block/mas_blk_busy_idle_notify.c:316:2
	adrp	x0, .L.str.18
	add	x0, x0, :lo12:.L.str.18
	mov	x1, x22
	mov	x2, x21
	bl	printk
.Ltmp312:
	//DEBUG_VALUE: __list_del_entry:entry <- $x20
	//DEBUG_VALUE: list_del_init:entry <- $x20
	.loc	142 120 33              // kernel/include/linux/list.h:120:33
	ldp	x8, x9, [x20]
.Ltmp313:
	//DEBUG_VALUE: __list_del:prev <- $x9
	//DEBUG_VALUE: __list_del:next <- $x8
	.loc	2 320 2                 // kernel/block/mas_blk_busy_idle_notify.c:320:2
	mov	x0, x20
.Ltmp314:
	.loc	142 105 13              // kernel/include/linux/list.h:105:13
	str	x9, [x8, #8]
.Ltmp315:
	//DEBUG_VALUE: __write_once_size:p <- $x9
	//DEBUG_VALUE: __write_once_size:size <- 8
	//DEBUG_VALUE: __write_once_size:res <- undef
	.loc	139 210 31              // kernel/include/linux/compiler.h:210:31
	str	x8, [x9]
.Ltmp316:
	//DEBUG_VALUE: __write_once_size:p <- $x20
	//DEBUG_VALUE: __write_once_size:size <- 8
	//DEBUG_VALUE: __write_once_size:res <- undef
	//DEBUG_VALUE: INIT_LIST_HEAD:list <- $x20
	.loc	139 210 31 is_stmt 0    // kernel/include/linux/compiler.h:210:31
	str	x20, [x20]
.Ltmp317:
	.loc	142 29 13 is_stmt 1     // kernel/include/linux/list.h:29:13
	str	x20, [x20, #8]
.Ltmp318:
	.loc	2 320 2                 // kernel/block/mas_blk_busy_idle_notify.c:320:2
	bl	kfree
.Ltmp319:
	.loc	2 0 0 is_stmt 0         // kernel/block/mas_blk_busy_idle_notify.c:0:0
	mov	w20, wzr
.Ltmp320:
	b	.LBB13_6
.Ltmp321:
.LBB13_5:
	//DEBUG_VALUE: mas_blk_busyidle_event_unregister:event_node <- $x21
	//DEBUG_VALUE: mas_blk_busyidle_event_unregister:lld <- $x23
	//DEBUG_VALUE: mas_blk_busyidle_event_unregister:blk_idle <- [DW_OP_plus_uconst 80, DW_OP_stack_value] $x23
	.loc	2 309 3 is_stmt 1       // kernel/block/mas_blk_busy_idle_notify.c:309:3
	adrp	x0, .L.str.17
	add	x0, x0, :lo12:.L.str.17
	bl	printk
	.loc	2 310 3                 // kernel/block/mas_blk_busy_idle_notify.c:310:3
	bl	dump_stack
	mov	w20, #-22
.Ltmp322:
	//DEBUG_VALUE: mas_blk_busyidle_event_unregister:ret <- -22
.LBB13_6:
	//DEBUG_VALUE: mas_blk_busyidle_event_unregister:lld <- $x23
	//DEBUG_VALUE: mas_blk_busyidle_event_unregister:blk_idle <- [DW_OP_plus_uconst 80, DW_OP_stack_value] $x23
	//DEBUG_VALUE: mas_blk_busyidle_event_unregister:ret <- $w20
	//DEBUG_LABEL: mas_blk_busyidle_event_unregister:out
	.loc	2 327 2                 // kernel/block/mas_blk_busy_idle_notify.c:327:2
	mov	x0, x19
	bl	mutex_unlock
	.loc	2 328 2                 // kernel/block/mas_blk_busy_idle_notify.c:328:2
	mov	w0, w20
	ldp	x29, x30, [sp, #48]     // 16-byte Folded Reload
	ldp	x20, x19, [sp, #32]     // 16-byte Folded Reload
.Ltmp323:
	ldp	x22, x21, [sp, #16]     // 16-byte Folded Reload
	ldp	x24, x23, [sp], #64     // 16-byte Folded Reload
.Ltmp324:
	ret
.Ltmp325:
.Lfunc_end13:
	.size	mas_blk_busyidle_event_unregister, .Lfunc_end13-mas_blk_busyidle_event_unregister
	.cfi_endproc
                                        // -- End function
	.section	.text.blk_queue_busyidle_event_unsubscribe,"ax",@progbits
	.hidden	blk_queue_busyidle_event_unsubscribe // -- Begin function blk_queue_busyidle_event_unsubscribe
	.globl	blk_queue_busyidle_event_unsubscribe
	.p2align	2
	.type	blk_queue_busyidle_event_unsubscribe,@function
blk_queue_busyidle_event_unsubscribe:   // @blk_queue_busyidle_event_unsubscribe
.Lfunc_begin14:
	.loc	2 884 0                 // kernel/block/mas_blk_busy_idle_notify.c:884:0
	.cfi_startproc
// %bb.0:
	//DEBUG_VALUE: blk_queue_busyidle_event_unsubscribe:event_node <- $x0
	//DEBUG_VALUE: blk_queue_busyidle_event_unsubscribe:event_node <- $x0
	.loc	2 885 6 prologue_end    // kernel/block/mas_blk_busy_idle_notify.c:885:6
	cbz	x0, .LBB14_2
.Ltmp326:
// %bb.1:
	//DEBUG_VALUE: blk_queue_busyidle_event_unsubscribe:event_node <- $x0
	stp	x29, x30, [sp, #-16]!   // 16-byte Folded Spill
	mov	x29, sp
	.cfi_def_cfa w29, 16
	.cfi_offset w30, -8
	.cfi_offset w29, -16
	.loc	2 888 9                 // kernel/block/mas_blk_busy_idle_notify.c:888:9
	bl	mas_blk_busyidle_event_unregister
.Ltmp327:
	.loc	2 0 9 is_stmt 0         // kernel/block/mas_blk_busy_idle_notify.c:0:9
	ldp	x29, x30, [sp], #16     // 16-byte Folded Reload
	.loc	2 889 1 is_stmt 1       // kernel/block/mas_blk_busy_idle_notify.c:889:1
	ret
.LBB14_2:
.Ltmp328:
	//DEBUG_VALUE: blk_queue_busyidle_event_unsubscribe:event_node <- $x0
	.loc	2 0 1 is_stmt 0         // kernel/block/mas_blk_busy_idle_notify.c:0:1
	mov	w0, #-22
.Ltmp329:
	.loc	2 889 1                 // kernel/block/mas_blk_busy_idle_notify.c:889:1
	ret
.Ltmp330:
.Lfunc_end14:
	.size	blk_queue_busyidle_event_unsubscribe, .Lfunc_end14-blk_queue_busyidle_event_unsubscribe
	.cfi_endproc
                                        // -- End function
	.section	.text.blk_queue_busyidle_enable,"ax",@progbits
	.hidden	blk_queue_busyidle_enable // -- Begin function blk_queue_busyidle_enable
	.globl	blk_queue_busyidle_enable
	.p2align	2
	.type	blk_queue_busyidle_enable,@function
blk_queue_busyidle_enable:              // @blk_queue_busyidle_enable
.Lfunc_begin15:
	.loc	2 895 0 is_stmt 1       // kernel/block/mas_blk_busy_idle_notify.c:895:0
	.cfi_startproc
// %bb.0:
	//DEBUG_VALUE: blk_queue_busyidle_enable:q <- $x0
	//DEBUG_VALUE: blk_queue_busyidle_enable:enable <- $w1
	//DEBUG_VALUE: blk_queue_busyidle_enable:blk_lld <- 0
	//DEBUG_VALUE: blk_queue_busyidle_enable:q <- $x0
	.loc	2 898 6 prologue_end    // kernel/block/mas_blk_busy_idle_notify.c:898:6
	cbz	x0, .LBB15_2
.Ltmp331:
// %bb.1:
	//DEBUG_VALUE: blk_queue_busyidle_enable:enable <- $w1
	//DEBUG_VALUE: blk_queue_busyidle_enable:q <- $x0
	str	x19, [sp, #-32]!        // 8-byte Folded Spill
	stp	x29, x30, [sp, #16]     // 16-byte Folded Spill
	add	x29, sp, #16            // =16
	.cfi_def_cfa w29, 16
	.cfi_offset w30, -8
	.cfi_offset w29, -16
	.cfi_offset w19, -32
	mov	w19, w1
.Ltmp332:
	//DEBUG_VALUE: blk_queue_busyidle_enable:enable <- $w19
	.loc	2 901 12                // kernel/block/mas_blk_busy_idle_notify.c:901:12
	bl	mas_blk_get_lld
.Ltmp333:
	//DEBUG_VALUE: blk_queue_busyidle_enable:blk_lld <- $x0
	.loc	2 0 0 is_stmt 0         // kernel/block/mas_blk_busy_idle_notify.c:0:0
	ldr	x8, [x0, #24]
.Ltmp334:
	.loc	2 903 6 is_stmt 1       // kernel/block/mas_blk_busy_idle_notify.c:903:6
	cmp	w19, #0                 // =0
	and	x9, x8, #0xfffffffffffffff7
	orr	x8, x8, #0x8
	csel	x8, x9, x8, eq
.Ltmp335:
	.loc	2 0 0 is_stmt 0         // kernel/block/mas_blk_busy_idle_notify.c:0:0
	str	x8, [x0, #24]
	ldp	x29, x30, [sp, #16]     // 16-byte Folded Reload
	ldr	x19, [sp], #32          // 8-byte Folded Reload
.Ltmp336:
.LBB15_2:
	.loc	2 907 1 is_stmt 1       // kernel/block/mas_blk_busy_idle_notify.c:907:1
	ret
.Ltmp337:
.Lfunc_end15:
	.size	blk_queue_busyidle_enable, .Lfunc_end15-blk_queue_busyidle_enable
	.cfi_endproc
                                        // -- End function
	.section	.text.blk_mq_tagset_busyidle_enable,"ax",@progbits
	.hidden	blk_mq_tagset_busyidle_enable // -- Begin function blk_mq_tagset_busyidle_enable
	.globl	blk_mq_tagset_busyidle_enable
	.p2align	2
	.type	blk_mq_tagset_busyidle_enable,@function
blk_mq_tagset_busyidle_enable:          // @blk_mq_tagset_busyidle_enable
.Lfunc_begin16:
	.loc	2 913 0                 // kernel/block/mas_blk_busy_idle_notify.c:913:0
	.cfi_startproc
// %bb.0:
	//DEBUG_VALUE: blk_mq_tagset_busyidle_enable:tag_set <- $x0
	//DEBUG_VALUE: blk_mq_tagset_busyidle_enable:tag_set <- $x0
	//DEBUG_VALUE: blk_mq_tagset_busyidle_enable:enable <- $w1
	//DEBUG_VALUE: blk_mq_tagset_busyidle_enable:enable <- $w1
	//DEBUG_VALUE: blk_mq_tagset_busyidle_enable:blk_lld <- 0
	.loc	2 916 6 prologue_end    // kernel/block/mas_blk_busy_idle_notify.c:916:6
	cbz	x0, .LBB16_2
// %bb.1:
	//DEBUG_VALUE: blk_mq_tagset_busyidle_enable:enable <- $w1
	//DEBUG_VALUE: blk_mq_tagset_busyidle_enable:tag_set <- $x0
.Ltmp338:
	//DEBUG_VALUE: blk_mq_tagset_busyidle_enable:blk_lld <- [DW_OP_plus_uconst 16, DW_OP_stack_value] $x0
	.loc	2 0 0 is_stmt 0         // kernel/block/mas_blk_busy_idle_notify.c:0:0
	ldr	x8, [x0, #40]
.Ltmp339:
	.loc	2 921 6 is_stmt 1       // kernel/block/mas_blk_busy_idle_notify.c:921:6
	cmp	w1, #0                  // =0
	and	x9, x8, #0xfffffffffffffff7
	orr	x8, x8, #0x8
	csel	x8, x9, x8, eq
.Ltmp340:
	.loc	2 0 0 is_stmt 0         // kernel/block/mas_blk_busy_idle_notify.c:0:0
	str	x8, [x0, #40]
.Ltmp341:
.LBB16_2:
	//DEBUG_VALUE: blk_mq_tagset_busyidle_enable:enable <- $w1
	//DEBUG_VALUE: blk_mq_tagset_busyidle_enable:tag_set <- $x0
	.loc	2 925 1 is_stmt 1       // kernel/block/mas_blk_busy_idle_notify.c:925:1
	ret
.Ltmp342:
.Lfunc_end16:
	.size	blk_mq_tagset_busyidle_enable, .Lfunc_end16-blk_mq_tagset_busyidle_enable
	.cfi_endproc
                                        // -- End function
	.section	.text.blk_mq_tagset_hw_idle_notify_enable,"ax",@progbits
	.hidden	blk_mq_tagset_hw_idle_notify_enable // -- Begin function blk_mq_tagset_hw_idle_notify_enable
	.globl	blk_mq_tagset_hw_idle_notify_enable
	.p2align	2
	.type	blk_mq_tagset_hw_idle_notify_enable,@function
blk_mq_tagset_hw_idle_notify_enable:    // @blk_mq_tagset_hw_idle_notify_enable
.Lfunc_begin17:
	.loc	2 932 0                 // kernel/block/mas_blk_busy_idle_notify.c:932:0
	.cfi_startproc
// %bb.0:
	//DEBUG_VALUE: blk_mq_tagset_hw_idle_notify_enable:tag_set <- $x0
	//DEBUG_VALUE: blk_mq_tagset_hw_idle_notify_enable:tag_set <- $x0
	//DEBUG_VALUE: blk_mq_tagset_hw_idle_notify_enable:enable <- $w1
	//DEBUG_VALUE: blk_mq_tagset_hw_idle_notify_enable:enable <- $w1
	//DEBUG_VALUE: blk_mq_tagset_hw_idle_notify_enable:blk_lld <- 0
	.loc	2 935 6 prologue_end    // kernel/block/mas_blk_busy_idle_notify.c:935:6
	cbz	x0, .LBB17_2
// %bb.1:
	//DEBUG_VALUE: blk_mq_tagset_hw_idle_notify_enable:enable <- $w1
	//DEBUG_VALUE: blk_mq_tagset_hw_idle_notify_enable:tag_set <- $x0
.Ltmp343:
	//DEBUG_VALUE: blk_mq_tagset_hw_idle_notify_enable:blk_lld <- [DW_OP_plus_uconst 16, DW_OP_stack_value] $x0
	.loc	2 939 41                // kernel/block/mas_blk_busy_idle_notify.c:939:41
	cmp	w1, #0                  // =0
	cset	w8, ne
	.loc	2 939 38 is_stmt 0      // kernel/block/mas_blk_busy_idle_notify.c:939:38
	strb	w8, [x0, #96]
.LBB17_2:
	//DEBUG_VALUE: blk_mq_tagset_hw_idle_notify_enable:enable <- $w1
	//DEBUG_VALUE: blk_mq_tagset_hw_idle_notify_enable:tag_set <- $x0
	.loc	2 940 1 is_stmt 1       // kernel/block/mas_blk_busy_idle_notify.c:940:1
	ret
.Ltmp344:
.Lfunc_end17:
	.size	blk_mq_tagset_hw_idle_notify_enable, .Lfunc_end17-blk_mq_tagset_hw_idle_notify_enable
	.cfi_endproc
                                        // -- End function
	.section	.text.mas_blk_busyidle_state_init,"ax",@progbits
	.hidden	mas_blk_busyidle_state_init // -- Begin function mas_blk_busyidle_state_init
	.globl	mas_blk_busyidle_state_init
	.p2align	2
	.type	mas_blk_busyidle_state_init,@function
mas_blk_busyidle_state_init:            // @mas_blk_busyidle_state_init
.Lfunc_begin18:
	.loc	2 970 0                 // kernel/block/mas_blk_busy_idle_notify.c:970:0
	.cfi_startproc
// %bb.0:
	//DEBUG_VALUE: mas_blk_busyidle_state_init:blk_idle <- $x0
	stp	x20, x19, [sp, #-32]!   // 16-byte Folded Spill
	stp	x29, x30, [sp, #16]     // 16-byte Folded Spill
	add	x29, sp, #16            // =16
	.cfi_def_cfa w29, 16
	.cfi_offset w30, -8
	.cfi_offset w29, -16
	.cfi_offset w19, -24
	.cfi_offset w20, -32
.Ltmp345:
	.loc	2 971 7 prologue_end    // kernel/block/mas_blk_busy_idle_notify.c:971:7
	adrp	x20, blk_idle_notify_workqueue
	ldr	x8, [x20, :lo12:blk_idle_notify_workqueue]
	mov	x19, x0
.Ltmp346:
	//DEBUG_VALUE: mas_blk_busyidle_state_init:blk_idle <- $x19
	.loc	2 971 6 is_stmt 0       // kernel/block/mas_blk_busy_idle_notify.c:971:6
	cbnz	x8, .LBB18_2
.Ltmp347:
// %bb.1:
	//DEBUG_VALUE: mas_blk_busyidle_state_init:blk_idle <- $x19
	.loc	2 972 31 is_stmt 1      // kernel/block/mas_blk_busy_idle_notify.c:972:31
	adrp	x0, .L.str.4
	add	x0, x0, :lo12:.L.str.4
	orr	w1, wzr, #0x18
	mov	w2, wzr
	mov	x3, xzr
	mov	x4, xzr
	bl	__alloc_workqueue_key
	.loc	2 972 29 is_stmt 0      // kernel/block/mas_blk_busy_idle_notify.c:972:29
	str	x0, [x20, :lo12:blk_idle_notify_workqueue]
.Ltmp348:
	.loc	2 975 6 is_stmt 1       // kernel/block/mas_blk_busy_idle_notify.c:975:6
	cbz	x0, .LBB18_4
.Ltmp349:
.LBB18_2:
	//DEBUG_VALUE: mas_blk_busyidle_state_init:blk_idle <- $x19
	.loc	2 0 6 is_stmt 0         // kernel/block/mas_blk_busy_idle_notify.c:0:6
	mov	x8, #68719476704
.Ltmp350:
	.loc	2 996 2 is_stmt 1       // kernel/block/mas_blk_busy_idle_notify.c:996:2
	adrp	x10, __cfi_mas_blk_idle_notify_work
	str	x8, [x19, #8]!
.Ltmp351:
	.loc	2 0 2 is_stmt 0         // kernel/block/mas_blk_busy_idle_notify.c:0:2
	mov	w9, #5
	.loc	2 996 2                 // kernel/block/mas_blk_busy_idle_notify.c:996:2
	add	x10, x10, :lo12:__cfi_mas_blk_idle_notify_work
	add	x8, x19, #8             // =8
.Ltmp352:
	//DEBUG_VALUE: __write_once_size:p <- $x8
	//DEBUG_VALUE: __write_once_size:size <- 8
	//DEBUG_VALUE: __write_once_size:res <- undef
	//DEBUG_VALUE: INIT_LIST_HEAD:list <- $x8
	.loc	2 996 2                 // kernel/block/mas_blk_busy_idle_notify.c:996:2
	add	x0, x19, #32            // =32
	orr	w1, wzr, #0x200000
	mov	x2, xzr
	mov	x3, xzr
.Ltmp353:
	.loc	2 995 33 is_stmt 1      // kernel/block/mas_blk_busy_idle_notify.c:995:33
	str	w9, [x19, #96]
.Ltmp354:
	.loc	139 210 31              // kernel/include/linux/compiler.h:210:31
	str	x8, [x19, #8]
.Ltmp355:
	.loc	142 29 13               // kernel/include/linux/list.h:29:13
	stp	x8, x10, [x19, #16]
.Ltmp356:
	.loc	2 996 2                 // kernel/block/mas_blk_busy_idle_notify.c:996:2
	bl	init_timer_key
.Ltmp357:
	adrp	x8, delayed_work_timer_fn
.Ltmp358:
	.loc	2 999 2                 // kernel/block/mas_blk_busy_idle_notify.c:999:2
	adrp	x1, .L.str.6
	adrp	x2, mas_blk_busyidle_state_init.__key
.Ltmp359:
	.loc	2 996 2                 // kernel/block/mas_blk_busy_idle_notify.c:996:2
	add	x8, x8, :lo12:delayed_work_timer_fn
.Ltmp360:
	.loc	2 999 2                 // kernel/block/mas_blk_busy_idle_notify.c:999:2
	add	x0, x19, #208           // =208
	add	x1, x1, :lo12:.L.str.6
	add	x2, x2, :lo12:mas_blk_busyidle_state_init.__key
.Ltmp361:
	.loc	2 996 2                 // kernel/block/mas_blk_busy_idle_notify.c:996:2
	stp	x8, x19, [x19, #56]
.Ltmp362:
	//DEBUG_VALUE: __write_once_size:p <- [DW_OP_plus_uconst 200, DW_OP_stack_value] $x19
	//DEBUG_VALUE: __write_once_size:size <- 4
	//DEBUG_VALUE: __write_once_size:res <- undef
	.loc	139 209 31              // kernel/include/linux/compiler.h:209:31
	str	wzr, [x19, #200]
.Ltmp363:
	.loc	2 999 2                 // kernel/block/mas_blk_busy_idle_notify.c:999:2
	bl	__mutex_init
.Ltmp364:
	.loc	2 1001 2                // kernel/block/mas_blk_busy_idle_notify.c:1001:2
	adrp	x1, .L.str.8
	adrp	x2, mas_blk_busyidle_state_init.__key.7
.Ltmp365:
	.loc	2 1000 28               // kernel/block/mas_blk_busy_idle_notify.c:1000:28
	add	x8, x19, #104           // =104
.Ltmp366:
	//DEBUG_VALUE: __write_once_size:p <- $x8
	//DEBUG_VALUE: __write_once_size:size <- 8
	//DEBUG_VALUE: __write_once_size:res <- undef
	//DEBUG_VALUE: INIT_LIST_HEAD:list <- $x8
	.loc	2 1001 2                // kernel/block/mas_blk_busy_idle_notify.c:1001:2
	add	x0, x19, #120           // =120
	add	x1, x1, :lo12:.L.str.8
	add	x2, x2, :lo12:mas_blk_busyidle_state_init.__key.7
.Ltmp367:
	.loc	139 210 31              // kernel/include/linux/compiler.h:210:31
	str	x8, [x19, #104]
.Ltmp368:
	.loc	142 29 13               // kernel/include/linux/list.h:29:13
	str	x8, [x19, #112]
.Ltmp369:
	.loc	2 1001 2                // kernel/block/mas_blk_busy_idle_notify.c:1001:2
	bl	__init_rwsem
.Ltmp370:
	.loc	2 1011 2                // kernel/block/mas_blk_busy_idle_notify.c:1011:2
	adrp	x1, .L.str.10
	adrp	x2, mas_blk_busyidle_state_init.__key.9
	orr	w8, wzr, #0x1
.Ltmp371:
	.loc	2 1009 28               // kernel/block/mas_blk_busy_idle_notify.c:1009:28
	add	x9, x19, #296           // =296
.Ltmp372:
	//DEBUG_VALUE: __write_once_size:res <- undef
	.loc	2 1010 28               // kernel/block/mas_blk_busy_idle_notify.c:1010:28
	add	x10, x19, #312          // =312
.Ltmp373:
	//DEBUG_VALUE: __write_once_size:res <- undef
	.loc	2 1011 2                // kernel/block/mas_blk_busy_idle_notify.c:1011:2
	add	x0, x19, #328           // =328
	add	x1, x1, :lo12:.L.str.10
	add	x2, x2, :lo12:mas_blk_busyidle_state_init.__key.9
.Ltmp374:
	.loc	2 1001 2                // kernel/block/mas_blk_busy_idle_notify.c:1001:2
	str	xzr, [x19, #192]
.Ltmp375:
	.loc	2 1008 22               // kernel/block/mas_blk_busy_idle_notify.c:1008:22
	stp	xzr, xzr, [x19, #280]
	.loc	2 1002 23               // kernel/block/mas_blk_busy_idle_notify.c:1002:23
	str	w8, [x19, #272]
.Ltmp376:
	//DEBUG_VALUE: __write_once_size:p <- $x9
	//DEBUG_VALUE: __write_once_size:size <- 8
	//DEBUG_VALUE: INIT_LIST_HEAD:list <- $x9
	.loc	139 210 31              // kernel/include/linux/compiler.h:210:31
	str	x9, [x19, #296]
.Ltmp377:
	.loc	142 29 13               // kernel/include/linux/list.h:29:13
	str	x9, [x19, #304]
.Ltmp378:
	//DEBUG_VALUE: __write_once_size:p <- $x10
	//DEBUG_VALUE: __write_once_size:size <- 8
	//DEBUG_VALUE: INIT_LIST_HEAD:list <- $x10
	.loc	139 210 31              // kernel/include/linux/compiler.h:210:31
	str	x10, [x19, #312]
.Ltmp379:
	.loc	142 29 13               // kernel/include/linux/list.h:29:13
	str	x10, [x19, #320]
.Ltmp380:
	.loc	2 1011 2                // kernel/block/mas_blk_busy_idle_notify.c:1011:2
	bl	__raw_spin_lock_init
.Ltmp381:
	.loc	2 0 0 is_stmt 0         // kernel/block/mas_blk_busy_idle_notify.c:0:0
	mov	w0, wzr
.Ltmp382:
.LBB18_3:
	.loc	2 1014 1 is_stmt 1      // kernel/block/mas_blk_busy_idle_notify.c:1014:1
	ldp	x29, x30, [sp, #16]     // 16-byte Folded Reload
	ldp	x20, x19, [sp], #32     // 16-byte Folded Reload
	ret
.LBB18_4:
.Ltmp383:
	//DEBUG_VALUE: mas_blk_busyidle_state_init:blk_idle <- $x19
	.loc	2 976 3                 // kernel/block/mas_blk_busy_idle_notify.c:976:3
	adrp	x0, .L.str.5
	adrp	x1, .L__func__.mas_blk_busyidle_state_init
	add	x0, x0, :lo12:.L.str.5
	add	x1, x1, :lo12:.L__func__.mas_blk_busyidle_state_init
	bl	printk
	mov	w0, #-12
	b	.LBB18_3
.Ltmp384:
.Lfunc_end18:
	.size	mas_blk_busyidle_state_init, .Lfunc_end18-mas_blk_busyidle_state_init
	.cfi_endproc
                                        // -- End function
	.type	.L.str,@object          // @.str
	.section	.rodata.str1.1,"aMS",@progbits,1
.L.str:
	.asciz	"\0013[BLK-IO]%s: %s process time is more than %u ms\n"
	.size	.L.str, 50

	.type	.L__func__.mas_blk_busyidle_handler_latency_check_timer_expire,@object // @__func__.mas_blk_busyidle_handler_latency_check_timer_expire
.L__func__.mas_blk_busyidle_handler_latency_check_timer_expire:
	.asciz	"mas_blk_busyidle_handler_latency_check_timer_expire"
	.size	.L__func__.mas_blk_busyidle_handler_latency_check_timer_expire, 52

	.type	.L.str.1,@object        // @.str.1
.L.str.1:
	.asciz	"\0013[BLK-IO]%s: %s NULL callback\n"
	.size	.L.str.1, 32

	.type	.L__func__.mas_blk_busyidle_notify_handler,@object // @__func__.mas_blk_busyidle_notify_handler
.L__func__.mas_blk_busyidle_notify_handler:
	.asciz	"mas_blk_busyidle_notify_handler"
	.size	.L__func__.mas_blk_busyidle_notify_handler, 32

	.type	.L.str.2,@object        // @.str.2
.L.str.2:
	.asciz	"\0013[BLK-IO]%s: %s error!\n"
	.size	.L.str.2, 25

	.type	.L.str.3,@object        // @.str.3
.L.str.3:
	.asciz	"\0013[BLK-IO]%s: %s busy idle callback cost %lld ms\n"
	.size	.L.str.3, 50

	.type	blk_idle_notify_workqueue,@object // @blk_idle_notify_workqueue
	.section	.bss.blk_idle_notify_workqueue,"aw",@nobits
	.p2align	3
blk_idle_notify_workqueue:
	.xword	0
	.size	blk_idle_notify_workqueue, 8

	.type	.L.str.4,@object        // @.str.4
	.section	.rodata.str1.1,"aMS",@progbits,1
.L.str.4:
	.asciz	"busyidle_notify"
	.size	.L.str.4, 16

	.type	.L.str.5,@object        // @.str.5
.L.str.5:
	.asciz	"\0013[BLK-IO]%s: Failed to alloc workqueue!\n"
	.size	.L.str.5, 42

	.type	.L__func__.mas_blk_busyidle_state_init,@object // @__func__.mas_blk_busyidle_state_init
.L__func__.mas_blk_busyidle_state_init:
	.asciz	"mas_blk_busyidle_state_init"
	.size	.L__func__.mas_blk_busyidle_state_init, 28

	.type	mas_blk_busyidle_state_init.__key,@object // @mas_blk_busyidle_state_init.__key
	.section	.bss.mas_blk_busyidle_state_init.__key,"aw",@nobits
mas_blk_busyidle_state_init.__key:
	.size	mas_blk_busyidle_state_init.__key, 0

	.type	.L.str.6,@object        // @.str.6
	.section	.rodata.str1.1,"aMS",@progbits,1
.L.str.6:
	.asciz	"&blk_idle->io_count_mutex"
	.size	.L.str.6, 26

	.type	mas_blk_busyidle_state_init.__key.7,@object // @mas_blk_busyidle_state_init.__key.7
	.section	.bss.mas_blk_busyidle_state_init.__key.7,"aw",@nobits
mas_blk_busyidle_state_init.__key.7:
	.size	mas_blk_busyidle_state_init.__key.7, 0

	.type	.L.str.8,@object        // @.str.8
	.section	.rodata.str1.1,"aMS",@progbits,1
.L.str.8:
	.asciz	"&(&blk_idle->nh)->rwsem"
	.size	.L.str.8, 24

	.type	mas_blk_busyidle_state_init.__key.9,@object // @mas_blk_busyidle_state_init.__key.9
	.section	.bss.mas_blk_busyidle_state_init.__key.9,"aw",@nobits
mas_blk_busyidle_state_init.__key.9:
	.size	mas_blk_busyidle_state_init.__key.9, 0

	.type	.L.str.10,@object       // @.str.10
	.section	.rodata.str1.1,"aMS",@progbits,1
.L.str.10:
	.asciz	"&(&blk_idle->counted_list_lock)->rlock"
	.size	.L.str.10, 39

	.type	.L.str.12,@object       // @.str.12
.L.str.12:
	.asciz	"\0013[BLK-IO]%s: io_count has been zero\n"
	.size	.L.str.12, 38

	.type	.L__func__.blk_idle_count,@object // @__func__.blk_idle_count
.L__func__.blk_idle_count:
	.asciz	"blk_idle_count"
	.size	.L__func__.blk_idle_count, 15

	.type	.L.str.13,@object       // @.str.13
.L.str.13:
	.asciz	"\0013[BLK-IO]%s: %s has been registered already!\n"
	.size	.L.str.13, 47

	.type	.L__func__.mas_blk_busyidle_event_register,@object // @__func__.mas_blk_busyidle_event_register
.L__func__.mas_blk_busyidle_event_register:
	.asciz	"mas_blk_busyidle_event_register"
	.size	.L__func__.mas_blk_busyidle_event_register, 32

	.type	.L.str.14,@object       // @.str.14
.L.str.14:
	.asciz	"\0013[BLK-IO]%s registered to busy idle\n"
	.size	.L.str.14, 38

	.type	.L.str.15,@object       // @.str.15
.L.str.15:
	.asciz	"\0010[BLK-IO]%s: notifier_callback is NULL\n"
	.size	.L.str.15, 41

	.type	.L__func__.is_valid_event_node,@object // @__func__.is_valid_event_node
.L__func__.is_valid_event_node:
	.asciz	"is_valid_event_node"
	.size	.L__func__.is_valid_event_node, 20

	.type	.L.str.16,@object       // @.str.16
.L.str.16:
	.asciz	"\0010[BLK-IO]%s: Invalid subscriber\n"
	.size	.L.str.16, 34

	.type	.L.str.17,@object       // @.str.17
.L.str.17:
	.asciz	"\0013[BLK-IO]Trying to unregister an unregistered event_node!\n"
	.size	.L.str.17, 60

	.type	.L.str.18,@object       // @.str.18
.L.str.18:
	.asciz	"\0013[BLK-IO]%s unregistered from busy idle module 0x%pK\n"
	.size	.L.str.18, 55
